
Byggern.elf:     file format elf32-avr

Sections:
Idx Name          Size      VMA       LMA       File off  Algn
  0 .data         000001a6  00800100  00003e52  00003ee6  2**0
                  CONTENTS, ALLOC, LOAD, DATA
  1 .text         00003e52  00000000  00000000  00000094  2**1
                  CONTENTS, ALLOC, LOAD, READONLY, CODE
  2 .bss          00000024  008002a6  008002a6  0000408c  2**0
                  ALLOC
  3 .comment      0000005c  00000000  00000000  0000408c  2**0
                  CONTENTS, READONLY
  4 .debug_aranges 000002c8  00000000  00000000  000040e8  2**0
                  CONTENTS, READONLY, DEBUGGING
  5 .debug_info   000035ac  00000000  00000000  000043b0  2**0
                  CONTENTS, READONLY, DEBUGGING
  6 .debug_abbrev 00001235  00000000  00000000  0000795c  2**0
                  CONTENTS, READONLY, DEBUGGING
  7 .debug_line   0000136d  00000000  00000000  00008b91  2**0
                  CONTENTS, READONLY, DEBUGGING
  8 .debug_frame  000006b8  00000000  00000000  00009f00  2**2
                  CONTENTS, READONLY, DEBUGGING
  9 .debug_str    00000634  00000000  00000000  0000a5b8  2**0
                  CONTENTS, READONLY, DEBUGGING
 10 .debug_loc    00001978  00000000  00000000  0000abec  2**0
                  CONTENTS, READONLY, DEBUGGING
 11 .debug_ranges 00000268  00000000  00000000  0000c564  2**0
                  CONTENTS, READONLY, DEBUGGING

Disassembly of section .text:

00000000 <__vectors>:
       0:	0c 94 b8 0f 	jmp	0x1f70	; 0x1f70 <__ctors_end>
       4:	0c 94 d5 0f 	jmp	0x1faa	; 0x1faa <__bad_interrupt>
       8:	0c 94 d5 0f 	jmp	0x1faa	; 0x1faa <__bad_interrupt>
       c:	0c 94 d5 0f 	jmp	0x1faa	; 0x1faa <__bad_interrupt>
      10:	0c 94 d5 0f 	jmp	0x1faa	; 0x1faa <__bad_interrupt>
      14:	0c 94 d5 0f 	jmp	0x1faa	; 0x1faa <__bad_interrupt>
      18:	0c 94 d5 0f 	jmp	0x1faa	; 0x1faa <__bad_interrupt>
      1c:	0c 94 d5 0f 	jmp	0x1faa	; 0x1faa <__bad_interrupt>
      20:	0c 94 d5 0f 	jmp	0x1faa	; 0x1faa <__bad_interrupt>
      24:	0c 94 d5 0f 	jmp	0x1faa	; 0x1faa <__bad_interrupt>
      28:	0c 94 d5 0f 	jmp	0x1faa	; 0x1faa <__bad_interrupt>
      2c:	0c 94 d5 0f 	jmp	0x1faa	; 0x1faa <__bad_interrupt>
      30:	0c 94 d5 0f 	jmp	0x1faa	; 0x1faa <__bad_interrupt>
      34:	0c 94 34 11 	jmp	0x2268	; 0x2268 <__vector_13>
      38:	0c 94 d5 0f 	jmp	0x1faa	; 0x1faa <__bad_interrupt>
      3c:	0c 94 d5 0f 	jmp	0x1faa	; 0x1faa <__bad_interrupt>
      40:	0c 94 d5 0f 	jmp	0x1faa	; 0x1faa <__bad_interrupt>
      44:	0c 94 d5 0f 	jmp	0x1faa	; 0x1faa <__bad_interrupt>
      48:	0c 94 d5 0f 	jmp	0x1faa	; 0x1faa <__bad_interrupt>
      4c:	0c 94 d5 0f 	jmp	0x1faa	; 0x1faa <__bad_interrupt>
      50:	0c 94 d5 0f 	jmp	0x1faa	; 0x1faa <__bad_interrupt>
      54:	0c 94 d5 0f 	jmp	0x1faa	; 0x1faa <__bad_interrupt>
      58:	0c 94 d5 0f 	jmp	0x1faa	; 0x1faa <__bad_interrupt>
      5c:	0c 94 d5 0f 	jmp	0x1faa	; 0x1faa <__bad_interrupt>
      60:	0c 94 d5 0f 	jmp	0x1faa	; 0x1faa <__bad_interrupt>
      64:	0c 94 d5 0f 	jmp	0x1faa	; 0x1faa <__bad_interrupt>
      68:	0c 94 d5 0f 	jmp	0x1faa	; 0x1faa <__bad_interrupt>
      6c:	0c 94 d5 0f 	jmp	0x1faa	; 0x1faa <__bad_interrupt>

00000070 <Hallo>:
      70:	1f ff ff ff ff ff ff f8 1f ff ff ff ff ff ff f8     ................
      80:	1f ff ff ff ff ff ff f8 1f ff ff ff ff ff ff f8     ................
      90:	1f ff ff ff ff ff ff f8 1f ff ff ff ff ff ff f8     ................
      a0:	1f ff ff ff ff ff ff f8 1f ff ff ff ff ff ff f8     ................
      b0:	1f ff ff ff ff ff ff f8 1f ff ff ff ff ff ff f8     ................
      c0:	1f ff ff ff ff ff ff f8 1f ff ff ff ff ff ff f8     ................
      d0:	1f ff ff ff ff ff ff f8 1f ff ff ff ff ff ff f8     ................
      e0:	1f ff ff ff ff ff ff f8 1f ff ff ff ff ff ff f8     ................
      f0:	1f ff ff ff ff ff ff f8 1f ff ff ff ff ff ff f8     ................
     100:	1f ff ff ff ff ff ff f8 1f ff ff ff ff ff ff f8     ................
     110:	1f ff ff ff ff ff ff f8 1f ff ff ff ff ff ff f8     ................
     120:	1f c1 ff ff ff ff ff f8 1f dc 7f ff ff ff ff f8     ................
     130:	1f 9f 9f ff ff ff ff f8 1f bf ef ff ff ff ff f8     ................
     140:	1f bf ef ff ff ff ff f8 1f bf ef ff ff ff ff f8     ................
     150:	1f 3f df ff ff ff ff f8 1f 7f df ff ff ff ff f8     .?..............
     160:	1f 7f df ff ff ff ff f8 1f 7f bf ff ff ff ff f8     ................
     170:	1f 7f bf ff ff ff ff f8 1f 7f bf ff ff ff ff f8     ................
     180:	1f 7f bf ff ff ff ff f8 1f 3f bf ff ff ff ff f8     .........?......
     190:	1f 3f 3f ff ff ff ff f8 1f bf 7f ff ff fc bf f8     .??.............
     1a0:	1f bf 7f ff ff fa 1f f8 1f bf 3f ff ff f2 9f f8     ..........?.....
     1b0:	1f bf df ff ff f5 9f f8 1f 9f df ff ff e5 bf f8     ................
     1c0:	1f c0 1f ff ff eb bf f8 1f ff 8c 7f ff d7 bf f8     ................
     1d0:	1f ff e3 bf ff 87 3f f8 1f ff dc 38 ff 8f 7f f8     ......?....8....
     1e0:	1f ff d3 10 7f 1e 7f f8 1f ff cf 00 7f 3e ff f8     .............>..
     1f0:	1f ff ff 87 02 3c ff f8 1f ff ff 9f 3c 7d ff f8     .....<......<}..
     200:	1f ff ff ff 7e fb ff f8 1f ff ff fe ff f3 ff f8     ....~...........
     210:	1f ff ff fe ff f7 ff f8 1f ff ff fd ff f3 ff f8     ................
     220:	1f ff ff fd ff fb ff f8 1f ff ff fc 7f f9 ff f8     ................
     230:	1f ff ff f8 7f fd ff f8 1f ff ff f8 7f fd ff f8     ................
     240:	1f ff ff f9 ff fc ff f8 1f ff ff f3 ff fc ff f8     ................
     250:	1f ff ff f7 ff fd ff f8 1f ff ff f7 ff fd ff f8     ................
     260:	1f 3f ff f7 ff f9 ff f8 1f 3f ff f0 ff e5 ff f8     .?.......?......
     270:	1f 1f ff f0 f0 0d ff f8 1f 0f ff f0 ff fd ff f8     ................
     280:	1e 0f ff f3 ff fd ff f8 1e 07 ff f7 ff fd ff f8     ................
     290:	1e 07 ff f7 ff fd ff f8 1e 07 ff f7 ff f9 ff f8     ................
     2a0:	1e 03 ff f7 ff fb ff f8 1a fb ff f7 ff fb ff f8     ................
     2b0:	18 fb f8 17 ff f3 ff f8 18 fd c7 e3 ff f7 ff f8     ................
     2c0:	18 fd 9f fd ff e7 ff f8 1c 7c 7f ff ff ef ff f8     .........|......
     2d0:	1c 7c ff ff ff df ff f8 1c 7c ff ff fe 9f ff f8     .|.......|......
     2e0:	1e 3e ff ff be bf ff f8 1e 3e ff ff be 7f ff f8     .>.......>......
     2f0:	1f 3e ff ff bf 7f ff f8 1f 1e ff ff bf 7f ff f8     .>..............
     300:	1f 9f ff ff bf 7f ff f8 1f 8f ff ff bf 7f ff f8     ................
     310:	1f c7 ff ff bf 7f ff f8 1f e7 ff ff bf 7f ff f8     ................
     320:	1f ef ff ff bf 3f ff f8 1f ef ff fc 5f 7f ff f8     .....?......_...
     330:	1f ef ff f8 1f 7f ff f8 1f e7 ff f8 0f 7f ff f8     ................
     340:	1f f7 ff f8 2f 7f ff f8 1f f7 ff fc 27 7f ff f8     ..../.......'...
     350:	1f f7 ff fe 70 7f ff f8 1f fb ff 9f f0 ff ff f8     ....p...........
     360:	1f fb ff 0f f7 ff ff f8 1f fd ff 0f ef ff ff f8     ................
     370:	1f fe ff 0f cf ff ff f8 1f ff 3f ff 9f ff ff f8     ..........?.....
     380:	1f ff 80 07 3f ff ff f8 1f ff e0 70 ff ff ff f8     ....?......p....
     390:	1f ff ff f9 ff ff ff f8 1f ff ff ff ff ff ff f8     ................
     3a0:	1f ff ff ff ff ff ff f8 1f ff ff ff ff ff ff f8     ................
     3b0:	1f ff ff ff ff ff ff f8 1f ff ff ff ff ff ff f8     ................
     3c0:	1f ff ff ff ff ff ff f8 1f ff ff ff ff ff ff f8     ................
     3d0:	1f ff ff ff ff ff ff f8 1f ff ff ff ff ff ff f8     ................
     3e0:	1f ff ff ff ff ff ff f8 1f ff ff ff ff ff ff f8     ................
     3f0:	1f ff ff ff ff ff ff f8 1f ff ff ff ff ff ff f8     ................
     400:	1f ff ff ff ff ff ff f8 1f ff ff ff ff ff ff f8     ................
     410:	1f ff ff ff ff ff ff f8 1f ff ff ff ff ff ff f8     ................
     420:	1f ff ff ff ff ff ff f8 1f ff ff ff ff ff ff f8     ................
     430:	1f ff ff ff ff ff ff f8 1f ff ff ff ff ff ff f8     ................
     440:	1f ff ff ff ff ff ff f8 1f ff ff ff ff ff ff f8     ................
     450:	1f ff ff ff ff ff ff f8 1f ff ff ff ff ff ff f8     ................
     460:	1f ff ff ff ff ff ff f8 1f ff ff ff ff ff ff f8     ................
     470:	1f ff ff ff ff ff ff f8 1f ff ff ff ff ff ff f8     ................
     480:	1f ff ff ff ff ff ff f8 1f ff ff ff ff ff ff f8     ................
     490:	1f ff ff ff ff ff ff f8 1f ff ff ff ff ff ff f8     ................
     4a0:	1f ff ff ff ff ff ff f8 1f ff ff ff ff ff ff f8     ................
     4b0:	1f ff ff ff ff ff ff f8 1f ff ff ff ff ff ff f8     ................
     4c0:	1f ff ff ff ff ff ff f8 1f ff ff ff ff ff ff f8     ................
     4d0:	1f ff ff ff ff ff ff f8 1f ff ff ff ff ff ff f8     ................
     4e0:	1f ff ff ff ff ff ff f8 1f ff ff ff ff ff ff f8     ................
     4f0:	1f ff ff ff ff ff ff f8 1f ff ff ff ff ff ff f8     ................
     500:	1f ff ff ff ff ff ff f8 1f ff ff ff ff ff ff f8     ................
     510:	1f ff ff ff ff ff ff f8 1f ff ff ff ff ff ff f8     ................
     520:	1f ff ff ff ff ff ff f8 1f ff ff ff ff ff ff f8     ................
     530:	1f ff ff ff ff ff ff f8 1f 00 7f ff ff ff ff f8     ................
     540:	1e ff 7f ff ff ff ff f8 1e ff 7f ff ff ff ff f8     ................
     550:	1e fe ff ff ff ff ff f8 1e fe ff ff ff ff ff f8     ................
     560:	1e fe ff ff ff ff ff f8 1e fe ff ff ff ff ff f8     ................
     570:	1e fe ff ff ff ff ff f8 1e fe ff ff ff ff ff f8     ................
     580:	1e fe ff ff ff ff ff f8 1e fe ff ff ff ff ff f8     ................
     590:	1e fe ff ff ff c3 ff f8 1e 7e ff ff ff c5 ff f8     .........~......
     5a0:	1f 7e ff ff ff ad ff f8 1f 7e ff ff ff 9d ff f8     .~.......~......
     5b0:	1f 7e ff ff ff 1d ff f8 1f 3f 3f ff ff 39 ff f8     .~.......??..9..
     5c0:	1f bf 9f ff fe 3b ff f8 1f bc 1f ff fe 7b ff f8     .....;.......{..
     5d0:	1f c3 9c 7f fc 7b ff f8 1f df 82 b8 fc 73 ff f8     .....{.......s..
     5e0:	1f ff c4 10 fc f7 ff f8 1f ff d3 02 7c f7 ff f8     ............|...
     5f0:	1f ff ef 86 01 f7 ff f8 1f ff ff de 79 f7 ff f8     ............y...
     600:	1f ff ff fe f9 f7 ff f8 1f ff ff fc fb f7 ff f8     ................
     610:	1f ff ff fd fb ef ff f8 1f ff ff f9 ff e7 ff f8     ................
     620:	1f ff ff fb ff f3 ff f8 1f ff ff f8 ff f9 ff f8     ................
     630:	1f ff ff f0 7f fd ff f8 1f ff ff f0 ff fc ff f8     ................
     640:	1f ff ff f1 ff fe ff f8 1f ff ff f7 ff fe ff f8     ................
     650:	1f ff ff f7 ff fc ff f8 1f ff ff f7 ff fd ff f8     ................
     660:	1f ff ff f7 ff f1 ff f8 1f ff ff f1 ff c5 ff f8     ................
     670:	1f ff ff f0 fc 1d ff f8 1c ff ff e1 ff fd ff f8     ................
     680:	1c 7f ff e3 ff fd ff f8 1c 3f ff f7 ff fd ff f8     .........?......
     690:	1c 3f ff f7 ff f9 ff f8 1c 1f ff f7 ff fb ff f8     .?..............
     6a0:	1c 0f ff f7 ff fb ff f8 1c 0f ff f7 ff f3 ff f8     ................
     6b0:	1d e7 ff f3 ff f7 ff f8 11 f7 ff fb ff f7 ff f8     ................
     6c0:	10 f7 f0 03 ff ef ff f8 10 fb cf f9 ff ef ff f8     ................
     6d0:	18 fb bf ff ff df ff f8 18 7b 7f ff ff 9f ff f8     .........{......
     6e0:	1b 78 ff ff ff 9f ff f8 1d 3d ff ff df 9f ff f8     .x.......=......
     6f0:	1d bd ff ff df 9f ff f8 1c 9d ff ff df df ff f8     ................
     700:	1e dd ff ff cf cf ff f8 1f 6f ff ff ef cf ff f8     .........o......
     710:	1f 77 ff ff ef cf ff f8 1f b7 ff ff ef cf ff f8     .w..............
     720:	1f d7 ff ff e7 ef ff f8 1f e7 ff ff f7 ef ff f8     ................
     730:	1f e7 ff fe f3 e7 ff f8 1f f7 ff fc 7b e7 ff f8     ............{...
     740:	1f f7 ff f8 39 e7 ff f8 1f f7 ff f8 38 cf ff f8     ....9.......8...
     750:	1f f7 ff f8 32 5f ff f8 1f f3 ff fc 77 1f ff f8     ....2_......w...
     760:	1f fb ff ff f7 bf ff f8 1f f9 ff 8f ef ff ff f8     ................
     770:	1f fd ff 07 ef ff ff f8 1f fc ff 07 df ff ff f8     ................
     780:	1f fe 7f 8f bf ff ff f8 1f ff 1f e7 3f ff ff f8     ............?...
     790:	1f ff c0 10 7f ff ff f8 1f ff ff f9 ff ff ff f8     ................
     7a0:	1f ff ff ff ff ff ff f8 1f ff ff ff ff ff ff f8     ................
     7b0:	1f ff ff ff ff ff ff f8 1f ff ff ff ff ff ff f8     ................
     7c0:	1f ff ff ff ff ff ff f8 1f ff ff ff ff ff ff f8     ................
     7d0:	1f ff ff ff ff ff ff f8 1f ff ff ff ff ff ff f8     ................
     7e0:	1f ff ff ff ff ff ff f8 1f ff ff ff ff ff ff f8     ................
     7f0:	1f ff ff ff ff ff ff f8 1f ff ff ff ff ff ff f8     ................
     800:	1f ff ff ff ff ff ff f8 1f ff ff ff ff ff ff f8     ................
     810:	1f ff ff ff ff ff ff f8 1f ff ff ff ff ff ff f8     ................
     820:	1f ff ff ff ff ff ff f8 1f ff ff ff ff ff ff f8     ................
     830:	1f ff ff ff ff ff ff f8 1f ff ff ff ff ff ff f8     ................
     840:	1f ff ff ff ff ff ff f8 1f ff ff ff ff ff ff f8     ................
     850:	1f ff ff ff ff ff ff f8 1f ff ff ff ff ff ff f8     ................
     860:	1f ff ff ff ff ff ff f8 1f ff ff ff ff ff ff f8     ................
     870:	1f ff ff ff ff ff ff f8 1f ff ff ff ff ff ff f8     ................
     880:	1f ff ff ff ff ff ff f8 1f ff ff ff ff ff ff f8     ................
     890:	1f ff ff ff ff ff ff f8 1f ff ff ff ff ff ff f8     ................
     8a0:	1f ff ff ff ff ff ff f8 1f ff ff ff ff ff ff f8     ................
     8b0:	1f ff ff ff ff ff ff f8 1f ff ff ff ff ff ff f8     ................
     8c0:	1f ff ff ff ff ff ff f8 1f ff ff ff ff ff ff f8     ................
     8d0:	1f ff ff ff ff ff ff f8 1f ff ff ff ff ff ff f8     ................
     8e0:	1f ff ff ff ff ff ff f8 1f ff ff ff ff ff ff f8     ................
     8f0:	1f ff ff ff ff ff ff f8 1f ff ff ff ff ff ff f8     ................
     900:	1f ff ff ff ff ff ff f8 1f ff ff ff ff ff ff f8     ................
     910:	1f ff ff ff ff ff ff f8 1f ff ff ff ff ff ff f8     ................
     920:	1f ff ff ff ff ff ff f8 1f ff ff ff ff ff ff f8     ................
     930:	1f ff ff ff ff ff ff f8 1f ff ff ff ff ff ff f8     ................
     940:	1f ff ff ff ff ff ff f8 1f ff ff ff ff ff ff f8     ................
     950:	1f ff ff ff ff ff ff f8 1f ff ff ff ff ff ff f8     ................
     960:	1f ff ff ff ff ff ff f8 1f ff ff ff ff ff ff f8     ................
     970:	1f ff ff ff ff ff ff f8 1f ff ff ff ff ff ff f8     ................
     980:	1f ff ff ff ff ff ff f8 1f ff ff ff ff ff ff f8     ................
     990:	1f ff ff ff ff ff ff f8 1f ff ff ff ff ff ff f8     ................
     9a0:	1f ff ff ff ff ff ff f8 1f ff ff ff ff 8f ff f8     ................
     9b0:	1f ff ff ff ff 2f ff f8 1f ff ff ff fe 6f ff f8     ...../.......o..
     9c0:	03 ff ff ff fc cf ff f8 0b ff ff ff f9 df ff f8     ................
     9d0:	1d ff ff ff f3 bf ff f8 1d ff ff ff e7 bf ff f8     ................
     9e0:	1e ff ff ff c7 7f ff f8 1e ff ff ff cf 7f ff f8     ................
     9f0:	1f 7f ff ff 8e 7f ff f8 1f 7f ff ff 9e ff ff f8     ................
     a00:	1f bf ff ff 9e ff ff f8 1f df f7 9c 18 0f ff f8     ................
     a10:	1f c9 e3 01 b3 e3 ff f8 1f e0 c0 27 bf f9 ff f8     ...........'....
     a20:	1f fe 80 6f bf fd ff f8 1f fd 08 ef bf fe ff f8     ...o............
     a30:	0f fa 5c ef ff fe ff f8 13 f3 1f ef ff fe ff f8     ..\.............
     a40:	19 f7 bf e1 ff fe ff f8 1e 77 ff e1 ff fe ff f8     .........w......
     a50:	1f 2f ff e3 ff fc ff f8 1f cf ff e3 ff fd ff f8     ./..............
     a60:	1f ff ff e7 ff f8 ff f8 1f ff ff ef ff fe ff f8     ................
     a70:	1f ff ff ef ff fe ff f8 1f ff ff ef ff fe ff f8     ................
     a80:	1f ff ff e7 ff fe ff f8 1f ff ff f0 7f fe ff f8     ................
     a90:	1f ff ff f0 ff fe ff f8 1f ff ff f1 ff fe ff f8     ................
     aa0:	1f ff ff fb ff ff 7f f8 1f ff ff fb ff ff 7f f8     ................
     ab0:	1f ff ff f9 ff fe ff f8 1f ff ff fd ff fe ff f8     ................
     ac0:	1f 8f ff fd ff fe ff f8 1f 83 ff fe ff e6 ff f8     ................
     ad0:	1f c1 ff f8 3f f0 7f f8 1f c0 ff c3 ff fc 3f f8     ....?.........?.
     ae0:	1f c0 7f 1f ff fe 1f f8 1f e3 3e 7f ff ff 1f f8     ..........>.....
     af0:	1f ef bc ff fe ff 8f f8 1f ef dd ff ff 7f c7 f8     ................
     b00:	1f f7 cb ff ff 7f e7 f8 1f 07 e3 ff ff 3f f3 f8     .............?..
     b10:	1f 03 f7 ff ff bf fb f8 1f 81 f7 ff ff df f9 f8     ................
     b20:	1f c0 f3 ff ff cf f9 f8 1f ce fb ff ff e7 fd f8     ................
     b30:	1f f7 3f ff ff f3 fd f8 1f fb 9f ff fc 78 ff f8     ..?..........x..
     b40:	1f fc cf ff f8 3a 7e f8 1f fe 27 ff f8 3b 1e f8     .....:~...'..;..
     b50:	1f ff cf ff f8 3b cd f8 1f ff ef ff fc 33 f1 f8     .....;.......3..
     b60:	1f ff ef ff ff f7 fd f8 1f ff f7 ff ff f7 ff f8     ................
     b70:	1f ff f7 ff ff f7 ff f8 1f ff f3 ff cf e7 ff f8     ................
     b80:	1f ff fb ff 87 ef ff f8 1f ff f9 ff 87 ef ff f8     ................
     b90:	1f ff fc ff cf df ff f8 1f ff fe 7f ff bf ff f8     ................
     ba0:	1f ff ff 1f e3 3f ff f8 1f ff ff c0 18 ff ff f8     .....?..........
     bb0:	1f ff ff ff ff ff ff f8 1f ff ff ff ff ff ff f8     ................
     bc0:	1f ff ff ff ff ff ff f8 1f ff ff ff ff ff ff f8     ................
     bd0:	1f ff ff ff ff ff ff f8 1f ff ff ff ff ff ff f8     ................
     be0:	1f ff ff ff ff ff ff f8 1f ff ff ff ff ff ff f8     ................
     bf0:	1f ff ff ff ff ff ff f8 1f ff ff ff ff ff ff f8     ................
     c00:	1f ff ff ff ff ff ff f8 1f ff ff ff ff ff ff f8     ................
     c10:	1f ff ff ff ff ff ff f8 1f ff ff ff ff ff ff f8     ................
     c20:	1f ff ff ff ff ff ff f8 1f ff ff ff ff ff ff f8     ................
     c30:	1f ff ff ff ff ff ff f8 1f ff ff ff ff ff ff f8     ................
     c40:	1f ff ff ff ff ff ff f8 1f ff ff ff ff ff ff f8     ................
     c50:	1f ff ff ff ff ff ff f8 1f ff ff ff ff ff ff f8     ................
     c60:	1f ff ff ff ff ff ff f8 1f ff ff ff ff ff ff f8     ................
     c70:	1f ff ff ff ff ff ff f8 1f ff ff ff ff ff ff f8     ................
     c80:	1f ff ff ff ff ff ff f8 1f ff ff ff ff ff ff f8     ................
     c90:	1f ff ff ff ff ff ff f8 1f ff ff ff ff ff ff f8     ................
     ca0:	1f ff ff ff ff ff ff f8 1f ff ff ff ff ff ff f8     ................
     cb0:	1f ff ff ff ff ff ff f8 1f ff ff ff ff ff ff f8     ................
     cc0:	1f ff ff ff ff ff ff f8 1f ff ff ff ff ff ff f8     ................
     cd0:	1f ff ff ff ff ff ff f8 1f ff ff ff ff ff ff f8     ................
     ce0:	1f ff ff ff ff ff ff f8 1f ff ff ff ff ff ff f8     ................
     cf0:	1f ff ff ff ff ff ff f8 1f ff ff ff ff ff ff f8     ................
     d00:	1f ff ff ff ff ff ff f8 1f ff ff ff ff ff ff f8     ................
     d10:	1f ff ff ff ff ff ff f8 1f ff ff ff ff ff ff f8     ................
     d20:	1f ff ff ff ff ff ff f8 1f ff ff ff ff ff ff f8     ................
     d30:	1f ff ff ff ff ff ff f8 1f ff ff ff ff ff ff f8     ................
     d40:	1f ff ff ff ff ff ff f8 1f ff ff ff ff ff ff f8     ................
     d50:	1f ff ff ff ff ff ff f8 1f ff ff ff ff ff ff f8     ................
     d60:	1f ff ff ff ff ff ff f8 1f ff ff ff ff ff ff f8     ................
     d70:	00 03 ff ff ff ff ff f8 07 ff ff ff ff ff ff f8     ................
     d80:	0f f7 ff ff ff ff ff f8 0f f7 ff ff ff ff ff f8     ................
     d90:	0f f7 ff ff ff ff ff f8 0f f7 ff ff ff ff ff f8     ................
     da0:	0f f7 ff ff ff ff ff f8 0f f7 ff ff ff ff ff f8     ................
     db0:	0f f7 ff ff ff ff ff f8 0f f7 ff ff ff ff ff f8     ................
     dc0:	0f f7 ff ff ff fc 07 f8 0f f7 ff ff ff e1 f7 f8     ................
     dd0:	0f f7 ff ff ff 8f f7 f8 07 f7 ff ff fe 3f c7 f8     .............?..
     de0:	07 f7 ff ff f8 fe 2f f8 17 f7 ff ff f3 f8 e7 f8     ....../.........
     df0:	17 f1 ff ff f7 f0 0f f8 1b fd f7 ff e7 c3 ff f8     ................
     e00:	1b f0 c7 de 07 0f ff f8 1b cc 3b 08 ff e3 ff f8     ..........;.....
     e10:	1d 3d 82 03 ff f9 ff f8 1c 7e 30 67 ff fd ff f8     .=.......~0g....
     e20:	1f fe f8 6f ff fe ff f8 1f ff f8 ef ff fe ff f8     ...o............
     e30:	1f ff ff cf ff fe ff f8 1f ff ff df ff fe ff f8     ................
     e40:	1f ff ff df ff fe ff f8 1f ff ff c1 ff fe ff f8     ................
     e50:	1f ff ff c1 ff fc ff f8 1f ff ff c3 ff f9 ff f8     ................
     e60:	1f ff ff e7 ff f7 ff f8 1f ff ff e7 ff fe ff f8     ................
     e70:	1f ff ff ef ff fe ff f8 1f ff ff e7 ff fe ff f8     ................
     e80:	1f ff ff f7 ff fe ff f8 1f ff ff f0 7f fe ff f8     ................
     e90:	1f f9 ff f0 ff fe ff f8 1f f8 ff f9 ff fe ff f8     ................
     ea0:	1f f8 7f fb ff ff 7f f8 1f f8 7f fb ff ff 7f f8     ................
     eb0:	1f f8 3f fd ff ff 7f f8 1f f8 1f fd ff ff 7f f8     ..?.............
     ec0:	1f f8 0f fc ff fe ff f8 1f c9 ef fe ff f2 7f f8     ................
     ed0:	1f c1 e7 f8 3f f8 9f f8 1f c1 f7 c3 fe fe 4f f8     ....?.........O.
     ee0:	1f c1 f7 9f ff 7f 8f f8 1f e0 fb 7f ff 7f c7 f8     ................
     ef0:	1f ee f8 ff ff 7f e3 f8 1f e6 79 ff ff bf f3 f8     ..........y.....
     f00:	1f f7 79 ff ff 9f f9 f8 1f fb 3d ff ff df f9 f8     ..y.......=.....
     f10:	1f f9 bd ff ff ef fd f8 1f fd 9d ff ff f7 fd f8     ................
     f20:	1f fe dd ff ff f1 fd f8 1f fe 6f ff ff f8 fe f8     ..........o.....
     f30:	1f ff 27 ff ff fa 7e f8 1f ff 87 ff fc 3b 9e f8     ..'...~......;..
     f40:	1f ff cf ff f8 3b ce f8 1f ff ef ff f8 1b f2 f8     .....;..........
     f50:	1f ff ef ff f8 3b f8 f8 1f ff ef ff fc 3b ff f8     .....;.......;..
     f60:	1f ff ef ff ff 73 ff f8 1f ff e7 ff ff f7 ff f8     .....s..........
     f70:	1f ff f7 ff ff f7 ff f8 1f ff f7 ff cf e7 ff f8     ................
     f80:	1f ff fb ff 87 ef ff f8 1f ff f9 ff 87 cf ff f8     ................
     f90:	1f ff fc ff cf df ff f8 1f ff fe 7f ff 9f ff f8     ................
     fa0:	1f ff ff 1f e1 3f ff f8 1f ff ff c0 18 7f ff f8     .....?..........
     fb0:	1f ff ff f0 7f ff ff f8 1f ff ff ff ff ff ff f8     ................
     fc0:	1f ff ff ff ff ff ff f8 1f ff ff ff ff ff ff f8     ................
     fd0:	1f ff ff ff ff ff ff f8 1f ff ff ff ff ff ff f8     ................
     fe0:	1f ff ff ff ff ff ff f8 1f ff ff ff ff ff ff f8     ................
     ff0:	1f ff ff ff ff ff ff f8 1f ff ff ff ff ff ff f8     ................
    1000:	1f ff ff ff ff ff ff f8 1f ff ff ff ff ff ff f8     ................
    1010:	1f ff ff ff ff ff ff f8 1f ff ff ff ff ff ff f8     ................
    1020:	1f ff ff ff ff ff ff f8 1f ff ff ff ff ff ff f8     ................
    1030:	1f ff ff ff ff ff ff f8 1f ff ff ff ff ff ff f8     ................
    1040:	1f ff ff ff ff ff ff f8 1f ff ff ff ff ff ff f8     ................
    1050:	1f ff ff ff ff ff ff f8 1f ff ff ff ff ff ff f8     ................
    1060:	1f ff ff ff ff ff ff f8 1f ff ff ff ff ff ff f8     ................
    1070:	1f ff ff ff ff ff ff f8 1f ff ff ff ff ff ff f8     ................
    1080:	1f ff ff ff ff ff ff f8 1f ff ff ff ff ff ff f8     ................
    1090:	1f ff ff ff ff ff ff f8 1f ff ff ff ff ff ff f8     ................
    10a0:	1f ff ff ff ff ff ff f8 1f ff ff ff ff ff ff f8     ................
    10b0:	1f ff ff ff ff ff ff f8 1f ff ff ff ff ff ff f8     ................
    10c0:	1f ff ff ff ff ff ff f8 1f ff ff ff ff ff ff f8     ................
    10d0:	1f ff ff ff ff ff ff f8 1f ff ff ff ff ff ff f8     ................
    10e0:	1f ff ff ff ff ff ff f8 1f ff ff ff ff ff ff f8     ................
    10f0:	1f ff ff ff ff ff ff f8 1f ff ff ff ff ff ff f8     ................
    1100:	1f ff ff ff ff ff ff f8 1f ff ff ff ff ff ff f8     ................
    1110:	1f ff ff ff ff ff ff f8 1f ff ff ff ff ff ff f8     ................
    1120:	1f f7 ff ff ff ff ff f8 1f 8d ff ff ff ff ff f8     ................
    1130:	1c 7d ff ff ff ff ff f8 19 fd ff ff ff ff ff f8     .}..............
    1140:	1f fd ff ff ff ff ff f8 1f fd ff ff ff ff ff f8     ................
    1150:	17 fd ff ff ff ff ff f8 17 f9 ff ff ff ff ff f8     ................
    1160:	17 f9 ff ff ff ff ff f8 17 f9 ff ff ff ff ff f8     ................
    1170:	17 fd ff ff ff ff ff f8 17 fd ff ff ff ff ff f8     ................
    1180:	1b fd ff ff ff ff ff f8 1b fd ff ff ff ff ff f8     ................
    1190:	1b fd ff ff ff ff ff f8 1b fd ff ff ff ff ff f8     ................
    11a0:	1b fc 3f ff ff ff ff f8 1b fe bc ff ff ff ff f8     ..?.............
    11b0:	1d ff b2 ff ff ff ff f8 1d fc 0e 7f ff ff ff f8     ................
    11c0:	1d f3 b0 73 ff ff ff f8 1e cf ae 61 ff ff ff f8     ...s.......a....
    11d0:	1e 9f 9e 00 f8 00 7f f8 1e 7f ff 0c c3 ff 9f f8     ................
    11e0:	1f ff ff 1c 2f ff e7 f8 1f ff ff bc ff ff fb f8     ..../...........
    11f0:	1f ff ff fd ff ff fb f8 1f ff ff f9 ff 80 03 f8     ................
    1200:	1f ff ff fb ff f9 e7 f8 1f ff ff fb ff fc 77 f8     ..............w.
    1210:	1f ff ff f7 ff fe 17 f8 1f ff ff f7 ff ff 47 f8     ..............G.
    1220:	1f ff ff f1 ff ff 77 f8 1f ff ff f0 ff ff bf f8     ......w.........
    1230:	1f ff ff e0 ff ff ff f8 1f ff ff e1 ff ff bf f8     ................
    1240:	1f ff ff e7 ff ff 3f f8 1f ff ff ef ff fe 7f f8     ......?.........
    1250:	1f ff ff e7 ff f8 ff f8 1f ff ff e7 ff fe ff f8     ................
    1260:	1f ff ff f7 ff fe ff f8 1f ff ff f7 ff fe ff f8     ................
    1270:	1f ff fb f0 ff fc ff f8 1f ff f9 f0 7f fd ff f8     ................
    1280:	1f ff f1 f0 ff fd ff f8 1f ff f1 fb ff fd ff f8     ................
    1290:	1f ff f0 fb ff fd ff f8 1f ff e0 fd ff fd ff f8     ................
    12a0:	1f ff e0 fd ff fd ff f8 1f ff cc fe ff f0 1f f8     ................
    12b0:	1f ff ce fe 7f ff c7 f8 1f ff 8e ff 3f ff f3 f8     ............?...
    12c0:	1f ff 8e f0 07 ff f9 f8 1f ff 8e c7 fa ff fd f8     ................
    12d0:	1f ff 8e 1f ff 7f fe f8 1f ff 8e 7f ff 7f e2 f8     ................
    12e0:	1f ff 8e 7f ff bf 00 f8 1f ff 8e ff ff c0 01 f8     ................
    12f0:	1f ff 8e ff ff f0 ff f8 1f ff 8e ff ff fb ff f8     ................
    1300:	1f ff ce ff ff fb ff f8 1f ff ce ff ff fb ff f8     ................
    1310:	1f ff cf ff ff fb ff f8 1f ff c7 ff ff fb ff f8     ................
    1320:	1f ff e7 ff fe 39 ff f8 1f ff e7 ff fc 19 ff f8     .....9..........
    1330:	1f ff f7 ff fc 19 ff f8 1f ff f7 ff fc 09 ff f8     ................
    1340:	1f ff f3 ff fc 1b ff f8 1f ff fb ff fe 1b ff f8     ................
    1350:	1f ff fb ff ff fb ff f8 1f ff fd ff ff fb ff f8     ................
    1360:	1f ff fd ff c3 f7 ff f8 1f ff fe ff c3 f7 ff f8     ................
    1370:	1f ff fe 7f c3 ef ff f8 1f ff ff 3f ef ef ff f8     ...........?....
    1380:	1f ff ff 9f f9 df ff f8 1f ff ff e0 00 3f ff f8     .............?..
    1390:	1f ff ff f8 3e 7f ff f8 1f ff ff ff ff ff ff f8     ....>...........
    13a0:	1f ff ff ff ff ff ff f8 1f ff ff ff ff ff ff f8     ................
    13b0:	1f ff ff ff ff ff ff f8 1f ff ff ff ff ff ff f8     ................
    13c0:	1f ff ff ff ff ff ff f8 1f ff ff ff ff ff ff f8     ................
    13d0:	1f ff ff ff ff ff ff f8 1f ff ff ff ff ff ff f8     ................
    13e0:	1f ff ff ff ff ff ff f8 1f ff ff ff ff ff ff f8     ................
    13f0:	1f ff ff ff ff ff ff f8 1f ff ff ff ff ff ff f8     ................
    1400:	1f ff ff ff ff ff ff f8 1f ff ff ff ff ff ff f8     ................
    1410:	1f ff ff ff ff ff ff f8 1f ff ff ff ff ff ff f8     ................
    1420:	1f ff ff ff ff ff ff f8 1f ff ff ff ff ff ff f8     ................
    1430:	1f ff ff ff ff ff ff f8 1f ff ff ff ff ff ff f8     ................
    1440:	1f ff ff ff ff ff ff f8 1f ff ff ff ff ff ff f8     ................
    1450:	1f ff ff ff ff ff ff f8 1f ff ff ff ff ff ff f8     ................
    1460:	1f ff ff ff ff ff ff f8 1f ff ff ff ff ff ff f8     ................
    1470:	1f ff ff ff ff ff ff f8 1f ff ff ff ff ff ff f8     ................
    1480:	1f ff ff ff ff ff ff f8 1f ff ff ff ff ff ff f8     ................
    1490:	1f ff ff ff ff ff ff f8 1f ff ff ff ff ff ff f8     ................
    14a0:	1f ff ff ff ff ff ff f8 1f ff ff ff ff ff ff f8     ................
    14b0:	1f ff ff ff ff ff ff f8 1f ff ff ff ff ff ff f8     ................
    14c0:	1f ff ff ff ff ff ff f8 1f ff ff ff ff ff ff f8     ................
    14d0:	1f ff ff ff ff ff ff f8 1f ff ff ff ff ff ff f8     ................
    14e0:	1f ff ff ff ff ff ff f8 1f ff ff ff ff ff ff f8     ................
    14f0:	1f ff ff ff ff ff ff f8 1f ff ff ff ff ff ff f8     ................
    1500:	1f ff ff ff ff ff ff f8 1f 00 3f ff ff ff ff f8     ..........?.....
    1510:	1f 7f bf ff ff ff ff f8 1e ff bf ff ff ff ff f8     ................
    1520:	1e ff 7f ff ff ff ff f8 1e ff 7f ff ff ff ff f8     ................
    1530:	1e ff 7f ff ff ff ff f8 1e ff 7f ff ff ff ff f8     ................
    1540:	1e ff 7f ff ff ff ff f8 1e ff 7f ff ff ff ff f8     ................
    1550:	1e ff ff ff ff ff ff f8 1e fe ff ff ff ff ff f8     ................
    1560:	1e fe ff ff ff ff ff f8 1e fe ff ff ff ff ff f8     ................
    1570:	1e fe ff ff ff ff ff f8 1e fe ff ff ff ff ff f8     ................
    1580:	1e fe 0f ff ff ff ff f8 1e ff ee 3f ff ff ff f8     ...........?....
    1590:	1f 7f 01 df ff ff ff f8 1f 78 c6 1e ff ff ff f8     .........x......
    15a0:	1f 67 e9 98 7f ff ff f8 1f 4f e7 80 3f ff ff f8     .g.......O..?...
    15b0:	1f bf ef c1 3f ff ff f8 1f ff ff c7 00 01 ff f8     ....?...........
    15c0:	1f ff ff ff 9e 70 3f f8 1f ff ff ff 3e fc 1f f8     .....p?.....>...
    15d0:	1f ff ff ff 7f ff 87 f8 1f ff ff fe ff f7 c3 f8     ................
    15e0:	1f ff ff fc ff fb f1 f8 1f ff ff fd ff fd f9 f8     ................
    15f0:	1f ff ff fd ff fe fd f8 1f ff ff fb ff fe 7e f8     ..............~.
    1600:	1f ff ff f8 ff ff 1e f8 1f ff ff f8 7f ff 6e f8     ..............n.
    1610:	1f ff ff f0 3f ff 72 f8 1f ff ff f0 3f ff 79 f8     ....?.r.....?.y.
    1620:	1f ff ff f7 ff fe 7f f8 1f ff ff f7 ff fc ff f8     ................
    1630:	1f ff ff f7 ff f1 ff f8 1f ff ff f7 ff 05 ff f8     ................
    1640:	1f ff ff f7 ff fd ff f8 1f ff ff f7 ff ff ff f8     ................
    1650:	1f ff ff f0 ff fb ff f8 1f ff ff f0 7f fb 0f f8     ................
    1660:	1f ff f3 f0 7f f8 f3 f8 1f ff e3 f3 ff e7 fb f8     ................
    1670:	1f ff e2 f7 ff cf fb f8 1f ff c0 fb ff bf f7 f8     ................
    1680:	1f ff c0 fb ff ff e7 f8 1f ff 80 fb ff ff c3 f8     ................
    1690:	1f ff 80 fd ff ff 97 f8 1f ff a0 fd ff ff 2f f8     ............../.
    16a0:	1f ff 71 e0 ff ff 5f f8 1f ff 79 1c 3f fe bf f8     ..q..._...y.?...
    16b0:	1f ff 78 ff bf fc 7f f8 1f ff 79 ff ff f0 ff f8     ..x.......y.....
    16c0:	1f ff 7b ff ff e3 ff f8 1f ff 73 ff ff 8f ff f8     ..{.......s.....
    16d0:	1f ff 77 ff ff 3f ff f8 1f ff 77 ff ff 7f ff f8     ..w..?....w.....
    16e0:	1f ff 77 ff ff 7f ff f8 1f ff 7f ff ff 7f ff f8     ..w.............
    16f0:	1f ff 7f ff ff bf ff f8 1f ff 7f ff ff bf ff f8     ................
    1700:	1f ff 7f ff ff bf ff f8 1f ff 7f ff cf bf ff f8     ................
    1710:	1f ff 7f ff 87 bf ff f8 1f ff 7f ff 03 bf ff f8     ................
    1720:	1f ff ff ff 03 bf ff f8 1f ff 7f ff 07 bf ff f8     ................
    1730:	1f ff 7f ff 8f bf ff f8 1f ff 7f ff ff bf ff f8     ................
    1740:	1f ff 7f ff ff bf ff f8 1f ff bf ff ff 7f ff f8     ................
    1750:	1f ff bf fc ff 7f ff f8 1f ff 9f f8 7f 7f ff f8     ................
    1760:	1f ff df f0 7e ff ff f8 1f ff ef f9 fe ff ff f8     ....~...........
    1770:	1f ff f3 ff fd ff ff f8 1f ff f8 fe 79 ff ff f8     ............y...
    1780:	1f ff ff 01 87 ff ff f8 1f ff ff ff 8f ff ff f8     ................
    1790:	1f ff ff ff ff ff ff f8 1f ff ff ff ff ff ff f8     ................
    17a0:	1f ff ff ff ff ff ff f8 1f ff ff ff ff ff ff f8     ................
    17b0:	1f ff ff ff ff ff ff f8 1f ff ff ff ff ff ff f8     ................
    17c0:	1f ff ff ff ff ff ff f8 1f ff ff ff ff ff ff f8     ................
    17d0:	1f ff ff ff ff ff ff f8 1f ff ff ff ff ff ff f8     ................
    17e0:	1f ff ff ff ff ff ff f8 1f ff ff ff ff ff ff f8     ................
    17f0:	1f ff ff ff ff ff ff f8 1f ff ff ff ff ff ff f8     ................
    1800:	1f ff ff ff ff ff ff f8 1f ff ff ff ff ff ff f8     ................
    1810:	1f ff ff ff ff ff ff f8 1f ff ff ff ff ff ff f8     ................
    1820:	1f ff ff ff ff ff ff f8 1f ff ff ff ff ff ff f8     ................
    1830:	1f ff ff ff ff ff ff f8 1f ff ff ff ff ff ff f8     ................
    1840:	1f ff ff ff ff ff ff f8 1f ff ff ff ff ff ff f8     ................
    1850:	1f ff ff ff ff ff ff f8 1f ff ff ff ff ff ff f8     ................
    1860:	1f ff ff ff ff ff ff f8 1f ff ff ff ff ff ff f8     ................
    1870:	1f ff ff ff ff ff ff f8 1f ff ff ff ff ff ff f8     ................
    1880:	1f ff ff ff ff ff ff f8 1f ff ff ff ff ff ff f8     ................
    1890:	1f ff ff ff ff ff ff f8 1f ff ff ff ff ff ff f8     ................
    18a0:	1f ff ff ff ff ff ff f8 1f ff ff ff ff ff ff f8     ................
    18b0:	1f ff ff ff ff ff ff f8 1f ff ff ff ff ff ff f8     ................
    18c0:	1f ff ff ff ff ff ff f8 1f ff ff ff ff ff ff f8     ................
    18d0:	1f ff ff ff ff ff ff f8 1f ff ff ff ff ff ff f8     ................
    18e0:	1f ff ff ff ff ff ff f8 1f ff ff ff ff ff ff f8     ................
    18f0:	1f ff ff ff ff ff ff f8 1f ff ff ff ff ff ff f8     ................
    1900:	1f ff ff ff ff ff ff f8 1f ff ff ff ff ff ff f8     ................
    1910:	1f c0 ff ff ff ff ff f8 1f 9f 1f ff ff ff ff f8     ................
    1920:	1f bf e7 ff ff ff ff f8 1f bf ef ff ff ff ff f8     ................
    1930:	1f bf ef ff ff ff ff f8 1f bf ef ff ff ff ff f8     ................
    1940:	1f bf df ff ff ff ff f8 1f bf df ff ff ff ff f8     ................
    1950:	1f bf df ff ff ff ff f8 1f 7f df ff ff ff ff f8     ................
    1960:	1f 7f bf ff ff ff ff f8 1f ff bf ff ff ff ff f8     ................
    1970:	1f 7f bf ff ff ff ff f8 1f bf bf ff ff ff ff f8     ................
    1980:	1f bf bf ff ff ff ff f8 1f bf bf ff ff ff ff f8     ................
    1990:	1f bf 8f ff ff ff ff f8 1f bf ef ff ff ff ff f8     ................
    19a0:	1f d0 1f ff ff ff ff f8 1f cf dc 3f ff ff ff f8     ...........?....
    19b0:	1f ff d3 bf ff ff ff f8 1f ff dc 1f ff ff 03 f8     ................
    19c0:	1f ff c7 9c ff f8 1d f8 1f ff ff 80 ff e0 fd f8     ................
    19d0:	1f ff ff 80 7f 87 fb f8 1f ff ff c2 63 1f e7 f8     ............c...
    19e0:	1f ff ff cf 0c 7f 9f f8 1f ff ff ff 3d ff 7f f8     ............=...
    19f0:	1f ff ff ff 7d fe ff f8 1f ff ff fe fd fd ff f8     ....}...........
    1a00:	1f ff ff fe ff ff ff f8 1f ff ff fd ff fd ff f8     ................
    1a10:	1f ff ff fd ff fd ff f8 1f ff ff f8 7f fe ff f8     ................
    1a20:	1f ff ff f8 3f fe ff f8 1f ff ff f8 7f fe ff f8     ....?...........
    1a30:	1f ff ff f3 ff ff 7f f8 1f ff ff f7 ff ff 7f f8     ................
    1a40:	1f ff ff f7 ff fe ff f8 1f ff ff f7 ff fe ff f8     ................
    1a50:	1f ff ff f7 ff fe ff f8 1f ff ff f7 ff 7d ff f8     .............}..
    1a60:	1f ff ff f0 ff 81 ff f8 1f ff f8 f0 ff fd ff f8     ................
    1a70:	1f ff f0 f1 ff fd ff f8 1f ff f0 f3 ff fd ff f8     ................
    1a80:	1f ff e0 f7 ff ff ff f8 1f ff c0 f7 ff fb ff f8     ................
    1a90:	1f ff d0 f7 ff fb ff f8 1f ff b8 f7 ff eb ff f8     ................
    1aa0:	1f ff b8 f3 ff eb ff f8 1f ff 7c 00 ff f3 ff f8     ..........|.....
    1ab0:	1f ff 79 ff 7f f3 ff f8 1f ff 7b ff fb fb ff f8     ..y.......{.....
    1ac0:	1f fe fb ff ff f9 ff f8 1f fe f7 ff fb fd ff f8     ................
    1ad0:	1f fe f7 ff fb fe ff f8 1f fd ff ff fb fe ff f8     ................
    1ae0:	1f fd ff ff fb ff 7f f8 1f fd ff ff fd ff 7f f8     ................
    1af0:	1f fd ff ff fc ff ff f8 1f fd ff ff fe 7f 3f f8     ..............?.
    1b00:	1f fd ff ff ff 3f 7f f8 1f fd ff ff ff 00 7f f8     .....?..........
    1b10:	1f fd ff ff ff 60 ff f8 1f fd ff ff 8f 7f ff f8     .....`..........
    1b20:	1f fd ff ff 07 7f ff f8 1f ff ff ff 03 7f ff f8     ................
    1b30:	1f fe ff ff 03 7f ff f8 1f fe ff ff 07 7f ff f8     ................
    1b40:	1f fe ff ff 07 7f ff f8 1f fe ff ff cf 7f ff f8     ................
    1b50:	1f ff 7f ff ff 7f ff f8 1f ff 3f e1 fe ff ff f8     ..........?.....
    1b60:	1f ff bf e0 fe ff ff f8 1f ff cf e1 fd ff ff f8     ................
    1b70:	1f ff e7 ff fd ff ff f8 1f ff f1 ff fb ff ff f8     ................
    1b80:	1f ff fe 00 e7 ff ff f8 1f ff ff fe 0f ff ff f8     ................
    1b90:	1f ff ff ff 7f ff ff f8 1f ff ff ff ff ff ff f8     ................
    1ba0:	1f ff ff ff ff ff ff f8 1f ff ff ff ff ff ff f8     ................
    1bb0:	1f ff ff ff ff ff ff f8 1f ff ff ff ff ff ff f8     ................
    1bc0:	1f ff ff ff ff ff ff f8 1f ff ff ff ff ff ff f8     ................
    1bd0:	1f ff ff ff ff ff ff f8 1f ff ff ff ff ff ff f8     ................
    1be0:	1f ff ff ff ff ff ff f8 1f ff ff ff ff ff ff f8     ................
    1bf0:	1f ff ff ff ff ff ff f8 1f ff ff ff ff ff ff f8     ................
    1c00:	1f ff ff ff ff ff ff f8 1f ff ff ff ff ff ff f8     ................
    1c10:	1f ff ff ff ff ff ff f8 1f ff ff ff ff ff ff f8     ................
    1c20:	1f ff ff ff ff ff ff f8 1f ff ff ff ff ff ff f8     ................
    1c30:	1f ff ff ff ff ff ff f8 1f ff ff ff ff ff ff f8     ................
    1c40:	1f ff ff ff ff ff ff f8 1f ff ff ff ff ff ff f8     ................
    1c50:	1f ff ff ff ff ff ff f8 1f ff ff ff ff ff ff f8     ................
    1c60:	1f ff ff ff ff ff ff f8 1f ff ff ff ff ff ff f8     ................

00001c70 <font8>:
	...
    1c78:	00 06 5f 5f 06 00 00 00 00 07 07 00 07 07 00 00     ..__............
    1c88:	14 7f 7f 14 7f 7f 14 00 24 2e 6b 6b 3a 12 00 00     ........$.kk:...
    1c98:	46 66 30 18 0c 66 62 00 30 7a 4f 5d 37 7a 48 00     Ff0..fb.0zO]7zH.
    1ca8:	04 07 03 00 00 00 00 00 00 1c 3e 63 41 00 00 00     ..........>cA...
    1cb8:	00 41 63 3e 1c 00 00 00 08 2a 3e 1c 1c 3e 2a 08     .Ac>.....*>..>*.
    1cc8:	08 08 3e 3e 08 08 00 00 00 a0 e0 60 00 00 00 00     ..>>.......`....
    1cd8:	08 08 08 08 08 08 00 00 00 00 60 60 00 00 00 00     ..........``....
    1ce8:	60 30 18 0c 06 03 01 00 3e 7f 59 4d 7f 3e 00 00     `0......>.YM.>..
    1cf8:	42 42 7f 7f 40 40 00 00 62 73 59 49 6f 66 00 00     BB..@@..bsYIof..
    1d08:	22 63 49 49 7f 36 00 00 18 1c 16 13 7f 7f 10 00     "cII.6..........
    1d18:	27 67 45 45 7d 39 00 00 3c 7e 4b 49 79 30 00 00     'gEE}9..<~KIy0..
    1d28:	03 63 71 19 0f 07 00 00 36 7f 49 49 7f 36 00 00     .cq.....6.II.6..
    1d38:	06 4f 49 69 3f 1e 00 00 00 00 6c 6c 00 00 00 00     .OIi?.....ll....
    1d48:	00 a0 ec 6c 00 00 00 00 08 1c 36 63 41 00 00 00     ...l......6cA...
    1d58:	14 14 14 14 14 14 00 00 00 41 63 36 1c 08 00 00     .........Ac6....
    1d68:	02 03 51 59 0f 06 00 00 3e 7f 41 5d 5d 1f 1e 00     ..QY....>.A]]...
    1d78:	7c 7e 13 13 7e 7c 00 00 41 7f 7f 49 49 7f 36 00     |~..~|..A..II.6.
    1d88:	1c 3e 63 41 41 63 22 00 41 7f 7f 41 63 7f 1c 00     .>cAAc".A..Ac...
    1d98:	41 7f 7f 49 5d 41 63 00 41 7f 7f 49 1d 01 03 00     A..I]Ac.A..I....
    1da8:	1c 3e 63 41 51 73 72 00 7f 7f 08 08 7f 7f 00 00     .>cAQsr.........
    1db8:	00 41 7f 7f 41 00 00 00 30 70 40 41 7f 3f 01 00     .A..A...0p@A.?..
    1dc8:	41 7f 7f 08 1c 77 63 00 41 7f 7f 41 40 60 70 00     A....wc.A..A@`p.
    1dd8:	7f 7f 06 0c 06 7f 7f 00 7f 7f 06 0c 18 7f 7f 00     ................
    1de8:	1c 3e 63 41 63 3e 1c 00 41 7f 7f 49 09 0f 06 00     .>cAc>..A..I....
    1df8:	1e 3f 21 71 7f 5e 00 00 41 7f 7f 19 39 6f 46 00     .?!q.^..A...9oF.
    1e08:	26 67 4d 59 7b 32 00 00 03 41 7f 7f 41 03 00 00     &gMY{2...A..A...
    1e18:	7f 7f 40 40 7f 7f 00 00 1f 3f 60 60 3f 1f 00 00     ..@@.....?``?...
    1e28:	7f 7f 30 18 30 7f 7f 00 63 77 1c 08 1c 77 63 00     ..0.0...cw...wc.
    1e38:	07 4f 78 78 4f 07 00 00 67 73 59 4d 47 63 71 00     .OxxO...gsYMGcq.
    1e48:	00 7f 7f 41 41 00 00 00 01 03 06 0c 18 30 60 00     ...AA........0`.
    1e58:	00 41 41 7f 7f 00 00 00 08 0c 06 03 06 0c 08 00     .AA.............
    1e68:	80 80 80 80 80 80 80 80 00 00 03 07 04 00 00 00     ................
    1e78:	20 74 54 54 3c 78 40 00 41 3f 7f 44 44 7c 38 00      tTT<x@.A?.DD|8.
    1e88:	38 7c 44 44 6c 28 00 00 30 78 48 49 3f 7f 40 00     8|DDl(..0xHI?.@.
    1e98:	38 7c 54 54 5c 18 00 00 48 7e 7f 49 03 02 00 00     8|TT\...H~.I....
    1ea8:	98 bc a4 a4 f8 7c 04 00 41 7f 7f 08 04 7c 78 00     .....|..A....|x.
    1eb8:	00 44 7d 7d 40 00 00 00 40 c4 84 fd 7d 00 00 00     .D}}@...@...}...
    1ec8:	41 7f 7f 10 38 6c 44 00 00 41 7f 7f 40 00 00 00     A...8lD..A..@...
    1ed8:	7c 7c 0c 18 0c 7c 78 00 7c 7c 04 04 7c 78 00 00     ||...|x.||..|x..
    1ee8:	38 7c 44 44 7c 38 00 00 84 fc f8 a4 24 3c 18 00     8|DD|8......$<..
    1ef8:	18 3c 24 a4 f8 fc 84 00 44 7c 78 44 1c 18 00 00     .<$.....D|xD....
    1f08:	48 5c 54 54 74 24 00 00 00 04 3e 7f 44 24 00 00     H\TTt$....>.D$..
    1f18:	3c 7c 40 40 3c 7c 40 00 1c 3c 60 60 3c 1c 00 00     <|@@<|@..<``<...
    1f28:	3c 7c 60 30 60 7c 3c 00 44 6c 38 10 38 6c 44 00     <|`0`|<.Dl8.8lD.
    1f38:	9c bc a0 a0 fc 7c 00 00 4c 64 74 5c 4c 64 00 00     .....|..Ldt\Ld..
    1f48:	08 08 3e 77 41 41 00 00 00 00 00 77 77 00 00 00     ..>wAA.....ww...
    1f58:	41 41 77 3e 08 08 00 00 02 03 01 03 02 03 01 00     AAw>............
    1f68:	18 18 7e 3c 18 00 00 00                             ..~<....

00001f70 <__ctors_end>:
    1f70:	11 24       	eor	r1, r1
    1f72:	1f be       	out	0x3f, r1	; 63
    1f74:	cf ef       	ldi	r28, 0xFF	; 255
    1f76:	d4 e0       	ldi	r29, 0x04	; 4
    1f78:	de bf       	out	0x3e, r29	; 62
    1f7a:	cd bf       	out	0x3d, r28	; 61

00001f7c <__do_copy_data>:
    1f7c:	12 e0       	ldi	r17, 0x02	; 2
    1f7e:	a0 e0       	ldi	r26, 0x00	; 0
    1f80:	b1 e0       	ldi	r27, 0x01	; 1
    1f82:	e2 e5       	ldi	r30, 0x52	; 82
    1f84:	fe e3       	ldi	r31, 0x3E	; 62
    1f86:	02 c0       	rjmp	.+4      	; 0x1f8c <__do_copy_data+0x10>
    1f88:	05 90       	lpm	r0, Z+
    1f8a:	0d 92       	st	X+, r0
    1f8c:	a6 3a       	cpi	r26, 0xA6	; 166
    1f8e:	b1 07       	cpc	r27, r17
    1f90:	d9 f7       	brne	.-10     	; 0x1f88 <__do_copy_data+0xc>

00001f92 <__do_clear_bss>:
    1f92:	22 e0       	ldi	r18, 0x02	; 2
    1f94:	a6 ea       	ldi	r26, 0xA6	; 166
    1f96:	b2 e0       	ldi	r27, 0x02	; 2
    1f98:	01 c0       	rjmp	.+2      	; 0x1f9c <.do_clear_bss_start>

00001f9a <.do_clear_bss_loop>:
    1f9a:	1d 92       	st	X+, r1

00001f9c <.do_clear_bss_start>:
    1f9c:	aa 3c       	cpi	r26, 0xCA	; 202
    1f9e:	b2 07       	cpc	r27, r18
    1fa0:	e1 f7       	brne	.-8      	; 0x1f9a <.do_clear_bss_loop>
    1fa2:	0e 94 80 10 	call	0x2100	; 0x2100 <main>
    1fa6:	0c 94 27 1f 	jmp	0x3e4e	; 0x3e4e <_exit>

00001faa <__bad_interrupt>:
    1faa:	0c 94 00 00 	jmp	0	; 0x0 <__vectors>

00001fae <ADC_read>:
	#else
		//round up by default
		__ticks_dc = (uint32_t)(ceil(fabs(__tmp)));
	#endif

	__builtin_avr_delay_cycles(__ticks_dc);
    1fae:	92 e5       	ldi	r25, 0x52	; 82
    1fb0:	9a 95       	dec	r25
    1fb2:	f1 f7       	brne	.-4      	; 0x1fb0 <ADC_read+0x2>
{
	_delay_us(50);
	volatile char *ext_adc = (char *) 0x1400; // Start address for the AAM
	int retrieved_value = 0;

	*ext_adc = 0b0100 + channel;
    1fb4:	8c 5f       	subi	r24, 0xFC	; 252
    1fb6:	80 93 00 14 	sts	0x1400, r24
    1fba:	82 e5       	ldi	r24, 0x52	; 82
    1fbc:	8a 95       	dec	r24
    1fbe:	f1 f7       	brne	.-4      	; 0x1fbc <ADC_read+0xe>
	_delay_us (50);
	// remapping
	retrieved_value = *ext_adc;
    1fc0:	60 91 00 14 	lds	r22, 0x1400
    1fc4:	70 e0       	ldi	r23, 0x00	; 0
	int val;
	val = (((float)(retrieved_value-128)/127)*100);
    1fc6:	60 58       	subi	r22, 0x80	; 128
    1fc8:	71 09       	sbc	r23, r1
    1fca:	88 27       	eor	r24, r24
    1fcc:	77 fd       	sbrc	r23, 7
    1fce:	80 95       	com	r24
    1fd0:	98 2f       	mov	r25, r24
    1fd2:	0e 94 b3 19 	call	0x3366	; 0x3366 <__floatsisf>
    1fd6:	20 e0       	ldi	r18, 0x00	; 0
    1fd8:	30 e0       	ldi	r19, 0x00	; 0
    1fda:	4e ef       	ldi	r20, 0xFE	; 254
    1fdc:	52 e4       	ldi	r21, 0x42	; 66
    1fde:	0e 94 18 19 	call	0x3230	; 0x3230 <__divsf3>
    1fe2:	20 e0       	ldi	r18, 0x00	; 0
    1fe4:	30 e0       	ldi	r19, 0x00	; 0
    1fe6:	48 ec       	ldi	r20, 0xC8	; 200
    1fe8:	52 e4       	ldi	r21, 0x42	; 66
    1fea:	0e 94 3f 1a 	call	0x347e	; 0x347e <__mulsf3>
    1fee:	0e 94 80 19 	call	0x3300	; 0x3300 <__fixsfsi>
    1ff2:	9b 01       	movw	r18, r22
	val = (int) val;
	
	// deadzone	
	if((-10 < val) & (10 > val)){
    1ff4:	67 5f       	subi	r22, 0xF7	; 247
    1ff6:	7f 4f       	sbci	r23, 0xFF	; 255
    1ff8:	63 31       	cpi	r22, 0x13	; 19
    1ffa:	71 05       	cpc	r23, r1
    1ffc:	10 f4       	brcc	.+4      	; 0x2002 <ADC_read+0x54>
		val=0;
    1ffe:	20 e0       	ldi	r18, 0x00	; 0
    2000:	30 e0       	ldi	r19, 0x00	; 0
	}
	return val;
}
    2002:	c9 01       	movw	r24, r18
    2004:	08 95       	ret

00002006 <ADC_init>:



void ADC_init()
{	
	MCUCR |= (1<<SRE);
    2006:	85 b7       	in	r24, 0x35	; 53
    2008:	80 68       	ori	r24, 0x80	; 128
    200a:	85 bf       	out	0x35, r24	; 53
	SFIOR |= (1<<XMM2);
    200c:	80 b7       	in	r24, 0x30	; 48
    200e:	80 62       	ori	r24, 0x20	; 32
    2010:	80 bf       	out	0x30, r24	; 48
    2012:	08 95       	ret

00002014 <buzzinit>:



void buzzinit()
{
set_bit(DDRE,PE2);		// Sets the PORT 3 as OC3A PWM output port
    2014:	32 9a       	sbi	0x06, 2	; 6
OCR1B = 100;
    2016:	84 e6       	ldi	r24, 0x64	; 100
    2018:	90 e0       	ldi	r25, 0x00	; 0
    201a:	99 bd       	out	0x29, r25	; 41
    201c:	88 bd       	out	0x28, r24	; 40
    201e:	08 95       	ret

00002020 <delayUS>:
	}
}

void delayUS(unsigned int time)
{
	while(time > 0)
    2020:	00 97       	sbiw	r24, 0x00	; 0
    2022:	31 f0       	breq	.+12     	; 0x2030 <delayUS+0x10>
    2024:	00 c0       	rjmp	.+0      	; 0x2026 <delayUS+0x6>
    2026:	00 c0       	rjmp	.+0      	; 0x2028 <delayUS+0x8>
    2028:	00 00       	nop
	{
		_delay_us(1);
		time--;
    202a:	01 97       	sbiw	r24, 0x01	; 1
	}
}

void delayUS(unsigned int time)
{
	while(time > 0)
    202c:	00 97       	sbiw	r24, 0x00	; 0
    202e:	d1 f7       	brne	.-12     	; 0x2024 <delayUS+0x4>
    2030:	08 95       	ret

00002032 <buzz>:
#define LED_PIN     2
#define LED_off()  LED_PORT&=~_BV(LED_PIN)
#define LED_on() LED_PORT|=_BV(LED_PIN)

void buzz(unsigned int freq, int time)
{
    2032:	0f 93       	push	r16
    2034:	1f 93       	push	r17
    2036:	cf 93       	push	r28
    2038:	df 93       	push	r29
    203a:	8c 01       	movw	r16, r24
    203c:	eb 01       	movw	r28, r22
	while (time>0)
    203e:	1c 16       	cp	r1, r28
    2040:	1d 06       	cpc	r1, r29
    2042:	5c f4       	brge	.+22     	; 0x205a <buzz+0x28>
	{
	LED_on();
    2044:	3a 9a       	sbi	0x07, 2	; 7
	delayUS(freq);
    2046:	c8 01       	movw	r24, r16
    2048:	0e 94 10 10 	call	0x2020	; 0x2020 <delayUS>
	LED_off();
    204c:	3a 98       	cbi	0x07, 2	; 7
	delayUS(freq);
    204e:	c8 01       	movw	r24, r16
    2050:	0e 94 10 10 	call	0x2020	; 0x2020 <delayUS>
	time--;
    2054:	21 97       	sbiw	r28, 0x01	; 1
#define LED_off()  LED_PORT&=~_BV(LED_PIN)
#define LED_on() LED_PORT|=_BV(LED_PIN)

void buzz(unsigned int freq, int time)
{
	while (time>0)
    2056:	20 97       	sbiw	r28, 0x00	; 0
    2058:	a9 f7       	brne	.-22     	; 0x2044 <buzz+0x12>
	delayUS(freq);
	LED_off();
	delayUS(freq);
	time--;
	}
}
    205a:	df 91       	pop	r29
    205c:	cf 91       	pop	r28
    205e:	1f 91       	pop	r17
    2060:	0f 91       	pop	r16
    2062:	08 95       	ret

00002064 <death_sfx>:

void death_sfx()
{
	buzz(1915,15);
    2064:	6f e0       	ldi	r22, 0x0F	; 15
    2066:	70 e0       	ldi	r23, 0x00	; 0
    2068:	8b e7       	ldi	r24, 0x7B	; 123
    206a:	97 e0       	ldi	r25, 0x07	; 7
    206c:	0e 94 19 10 	call	0x2032	; 0x2032 <buzz>
	buzz(1700,15);
    2070:	6f e0       	ldi	r22, 0x0F	; 15
    2072:	70 e0       	ldi	r23, 0x00	; 0
    2074:	84 ea       	ldi	r24, 0xA4	; 164
    2076:	96 e0       	ldi	r25, 0x06	; 6
    2078:	0e 94 19 10 	call	0x2032	; 0x2032 <buzz>
	buzz(1519,15);
    207c:	6f e0       	ldi	r22, 0x0F	; 15
    207e:	70 e0       	ldi	r23, 0x00	; 0
    2080:	8f ee       	ldi	r24, 0xEF	; 239
    2082:	95 e0       	ldi	r25, 0x05	; 5
    2084:	0e 94 19 10 	call	0x2032	; 0x2032 <buzz>
	buzz(1450,15);
    2088:	6f e0       	ldi	r22, 0x0F	; 15
    208a:	70 e0       	ldi	r23, 0x00	; 0
    208c:	8a ea       	ldi	r24, 0xAA	; 170
    208e:	95 e0       	ldi	r25, 0x05	; 5
    2090:	0e 94 19 10 	call	0x2032	; 0x2032 <buzz>
	buzz(1432,15);
    2094:	6f e0       	ldi	r22, 0x0F	; 15
    2096:	70 e0       	ldi	r23, 0x00	; 0
    2098:	88 e9       	ldi	r24, 0x98	; 152
    209a:	95 e0       	ldi	r25, 0x05	; 5
    209c:	0e 94 19 10 	call	0x2032	; 0x2032 <buzz>
	buzz(1275,15);
    20a0:	6f e0       	ldi	r22, 0x0F	; 15
    20a2:	70 e0       	ldi	r23, 0x00	; 0
    20a4:	8b ef       	ldi	r24, 0xFB	; 251
    20a6:	94 e0       	ldi	r25, 0x04	; 4
    20a8:	0e 94 19 10 	call	0x2032	; 0x2032 <buzz>
	buzz(1136,15);
    20ac:	6f e0       	ldi	r22, 0x0F	; 15
    20ae:	70 e0       	ldi	r23, 0x00	; 0
    20b0:	80 e7       	ldi	r24, 0x70	; 112
    20b2:	94 e0       	ldi	r25, 0x04	; 4
    20b4:	0e 94 19 10 	call	0x2032	; 0x2032 <buzz>
	buzz(1014,15);
    20b8:	6f e0       	ldi	r22, 0x0F	; 15
    20ba:	70 e0       	ldi	r23, 0x00	; 0
    20bc:	86 ef       	ldi	r24, 0xF6	; 246
    20be:	93 e0       	ldi	r25, 0x03	; 3
    20c0:	0e 94 19 10 	call	0x2032	; 0x2032 <buzz>
	buzz(1956,20);
    20c4:	64 e1       	ldi	r22, 0x14	; 20
    20c6:	70 e0       	ldi	r23, 0x00	; 0
    20c8:	84 ea       	ldi	r24, 0xA4	; 164
    20ca:	97 e0       	ldi	r25, 0x07	; 7
    20cc:	0e 94 19 10 	call	0x2032	; 0x2032 <buzz>
    20d0:	08 95       	ret

000020d2 <Shoot_sfx>:
}

void Shoot_sfx()
{
	if (read_knappJoy())
    20d2:	0e 94 70 12 	call	0x24e0	; 0x24e0 <read_knappJoy>
    20d6:	89 2b       	or	r24, r25
    20d8:	91 f0       	breq	.+36     	; 0x20fe <Shoot_sfx+0x2c>
	{
		buzz(500,5);
    20da:	65 e0       	ldi	r22, 0x05	; 5
    20dc:	70 e0       	ldi	r23, 0x00	; 0
    20de:	84 ef       	ldi	r24, 0xF4	; 244
    20e0:	91 e0       	ldi	r25, 0x01	; 1
    20e2:	0e 94 19 10 	call	0x2032	; 0x2032 <buzz>
		buzz(250,5);
    20e6:	65 e0       	ldi	r22, 0x05	; 5
    20e8:	70 e0       	ldi	r23, 0x00	; 0
    20ea:	8a ef       	ldi	r24, 0xFA	; 250
    20ec:	90 e0       	ldi	r25, 0x00	; 0
    20ee:	0e 94 19 10 	call	0x2032	; 0x2032 <buzz>
		buzz(100,5);
    20f2:	65 e0       	ldi	r22, 0x05	; 5
    20f4:	70 e0       	ldi	r23, 0x00	; 0
    20f6:	84 e6       	ldi	r24, 0x64	; 100
    20f8:	90 e0       	ldi	r25, 0x00	; 0
    20fa:	0e 94 19 10 	call	0x2032	; 0x2032 <buzz>
    20fe:	08 95       	ret

00002100 <main>:
volatile char Game_over = 0;
volatile char can_flag = 0;
volatile char score = 0;

int main(void)
{
    2100:	cf 93       	push	r28
    2102:	df 93       	push	r29
    2104:	cd b7       	in	r28, 0x3d	; 61
    2106:	de b7       	in	r29, 0x3e	; 62
    2108:	2a 97       	sbiw	r28, 0x0a	; 10
    210a:	0f b6       	in	r0, 0x3f	; 63
    210c:	f8 94       	cli
    210e:	de bf       	out	0x3e, r29	; 62
    2110:	0f be       	out	0x3f, r0	; 63
    2112:	cd bf       	out	0x3d, r28	; 61
	
	DDRD  = 0xFF;
    2114:	8f ef       	ldi	r24, 0xFF	; 255
    2116:	81 bb       	out	0x11, r24	; 17
	DDRB = 0b00011000;				//Output, input p 0-2
    2118:	88 e1       	ldi	r24, 0x18	; 24
    211a:	87 bb       	out	0x17, r24	; 23
	PORTB = 0b00000100;					//pull-up pin2
    211c:	84 e0       	ldi	r24, 0x04	; 4
    211e:	88 bb       	out	0x18, r24	; 24
	
	UartInit();
    2120:	0e 94 e2 18 	call	0x31c4	; 0x31c4 <UartInit>
	printf("start p program \n");
    2124:	8e e0       	ldi	r24, 0x0E	; 14
    2126:	91 e0       	ldi	r25, 0x01	; 1
    2128:	0e 94 01 1b 	call	0x3602	; 0x3602 <puts>
	//SRAM_init();
	buzzinit();
    212c:	0e 94 0a 10 	call	0x2014	; 0x2014 <buzzinit>
	ADC_init();
    2130:	0e 94 03 10 	call	0x2006	; 0x2006 <ADC_init>
	init_OLED();
    2134:	0e 94 d3 13 	call	0x27a6	; 0x27a6 <init_OLED>
	CAN_init();
    2138:	0e 94 45 11 	call	0x228a	; 0x228a <CAN_init>
	
	//Trigger interrupt with interval of 50hz
	OCR1A = 1536;
    213c:	80 e0       	ldi	r24, 0x00	; 0
    213e:	96 e0       	ldi	r25, 0x06	; 6
    2140:	9b bd       	out	0x2b, r25	; 43
    2142:	8a bd       	out	0x2a, r24	; 42

	//Enable CTC mode
	set_bit(TCCR1A,COM1A0);
    2144:	8f b5       	in	r24, 0x2f	; 47
    2146:	80 64       	ori	r24, 0x40	; 64
    2148:	8f bd       	out	0x2f, r24	; 47

	//Prescale 64
	set_bit(TCCR1B, CS11);
    214a:	8e b5       	in	r24, 0x2e	; 46
    214c:	82 60       	ori	r24, 0x02	; 2
    214e:	8e bd       	out	0x2e, r24	; 46
	set_bit(TCCR1B, CS10);
    2150:	8e b5       	in	r24, 0x2e	; 46
    2152:	81 60       	ori	r24, 0x01	; 1
    2154:	8e bd       	out	0x2e, r24	; 46
	set_bit(TCCR1B, WGM12);
    2156:	8e b5       	in	r24, 0x2e	; 46
    2158:	88 60       	ori	r24, 0x08	; 8
    215a:	8e bd       	out	0x2e, r24	; 46
	
	// Enable interrupt on output compare match timer 1
	set_bit(TIMSK, OCIE1A);
    215c:	89 b7       	in	r24, 0x39	; 57
    215e:	80 64       	ori	r24, 0x40	; 64
    2160:	89 bf       	out	0x39, r24	; 57
	
	// Enable Global Interrupts
	sei();
    2162:	78 94       	sei


	calibrate();
    2164:	0e 94 74 12 	call	0x24e8	; 0x24e8 <calibrate>
	OLED_Reset();
    2168:	0e 94 6f 14 	call	0x28de	; 0x28de <OLED_Reset>
	OLED_NameScreen();
    216c:	0e 94 21 17 	call	0x2e42	; 0x2e42 <OLED_NameScreen>
	
			
	//CAN_message myMessage;				//test message
	printf("Start p program\n");
    2170:	80 e2       	ldi	r24, 0x20	; 32
    2172:	91 e0       	ldi	r25, 0x01	; 1
    2174:	0e 94 01 1b 	call	0x3602	; 0x3602 <puts>
							OLED_print("PING-PONG", 8);
							OLED_goto(0, 105);
							OLED_print(&Name, 8);
							_delay_ms(200);
							score = 0;
							oldscore = -1;
    2178:	0f ef       	ldi	r16, 0xFF	; 255
    217a:	1f ef       	ldi	r17, 0xFF	; 255
								{
									if (in.id == 25){
										score = in.data[0];
										whileplaying(score);
										if (in.data[1] > 0){
											Game_over = 1;
    217c:	ff 24       	eor	r15, r15
    217e:	f3 94       	inc	r15
	
    
	
	while(1)
    {
		OLED_menu();
    2180:	0e 94 d2 14 	call	0x29a4	; 0x29a4 <OLED_menu>
		// MENY STUKTUR
				//if(read_knappJoy() == 1)
				//{
					switch(p)
    2184:	80 91 0c 01 	lds	r24, 0x010C
    2188:	90 91 0d 01 	lds	r25, 0x010D
    218c:	84 30       	cpi	r24, 0x04	; 4
    218e:	91 05       	cpc	r25, r1
    2190:	09 f4       	brne	.+2      	; 0x2194 <main+0x94>
    2192:	5b c0       	rjmp	.+182    	; 0x224a <main+0x14a>
    2194:	86 30       	cpi	r24, 0x06	; 6
    2196:	91 05       	cpc	r25, r1
    2198:	09 f4       	brne	.+2      	; 0x219c <main+0x9c>
    219a:	63 c0       	rjmp	.+198    	; 0x2262 <main+0x162>
    219c:	02 97       	sbiw	r24, 0x02	; 2
    219e:	81 f7       	brne	.-32     	; 0x2180 <main+0x80>
					{
						case 2:
						{
							Game_over = 0;
    21a0:	10 92 a8 02 	sts	0x02A8, r1
							OLED_Reset();
    21a4:	0e 94 6f 14 	call	0x28de	; 0x28de <OLED_Reset>
							OLED_Home();
    21a8:	0e 94 5d 14 	call	0x28ba	; 0x28ba <OLED_Home>
							OLED_print("PING-PONG", 8);
    21ac:	68 e0       	ldi	r22, 0x08	; 8
    21ae:	81 e3       	ldi	r24, 0x31	; 49
    21b0:	91 e0       	ldi	r25, 0x01	; 1
    21b2:	0e 94 a5 14 	call	0x294a	; 0x294a <OLED_print>
							OLED_goto(0, 105);
    21b6:	69 e6       	ldi	r22, 0x69	; 105
    21b8:	80 e0       	ldi	r24, 0x00	; 0
    21ba:	0e 94 ba 14 	call	0x2974	; 0x2974 <OLED_goto>
							OLED_print(&Name, 8);
    21be:	68 e0       	ldi	r22, 0x08	; 8
    21c0:	89 ea       	ldi	r24, 0xA9	; 169
    21c2:	92 e0       	ldi	r25, 0x02	; 2
    21c4:	0e 94 a5 14 	call	0x294a	; 0x294a <OLED_print>
	#else
		//round up by default
		__ticks_dc = (uint32_t)(ceil(fabs(__tmp)));
	#endif

	__builtin_avr_delay_cycles(__ticks_dc);
    21c8:	2f ef       	ldi	r18, 0xFF	; 255
    21ca:	8f ef       	ldi	r24, 0xFF	; 255
    21cc:	92 e0       	ldi	r25, 0x02	; 2
    21ce:	21 50       	subi	r18, 0x01	; 1
    21d0:	80 40       	sbci	r24, 0x00	; 0
    21d2:	90 40       	sbci	r25, 0x00	; 0
    21d4:	e1 f7       	brne	.-8      	; 0x21ce <main+0xce>
    21d6:	00 c0       	rjmp	.+0      	; 0x21d8 <main+0xd8>
    21d8:	00 c0       	rjmp	.+0      	; 0x21da <main+0xda>
							_delay_ms(200);
							score = 0;
    21da:	10 92 a6 02 	sts	0x02A6, r1
							oldscore = -1;
    21de:	10 93 0b 01 	sts	0x010B, r17
    21e2:	00 93 0a 01 	sts	0x010A, r16
							whileplaying(score);
    21e6:	80 91 a6 02 	lds	r24, 0x02A6
    21ea:	0e 94 90 15 	call	0x2b20	; 0x2b20 <whileplaying>

							while (!Game_over)
    21ee:	28 c0       	rjmp	.+80     	; 0x2240 <main+0x140>
							{
								CAN_read2(&in);
    21f0:	ce 01       	movw	r24, r28
    21f2:	01 96       	adiw	r24, 0x01	; 1
    21f4:	0e 94 a7 11 	call	0x234e	; 0x234e <CAN_read2>
    21f8:	8f ef       	ldi	r24, 0xFF	; 255
    21fa:	9f e2       	ldi	r25, 0x2F	; 47
    21fc:	01 97       	sbiw	r24, 0x01	; 1
    21fe:	f1 f7       	brne	.-4      	; 0x21fc <main+0xfc>
    2200:	00 c0       	rjmp	.+0      	; 0x2202 <main+0x102>
    2202:	00 00       	nop
								_delay_ms(10);
								if (can_flag > 5)
    2204:	80 91 a7 02 	lds	r24, 0x02A7
    2208:	86 30       	cpi	r24, 0x06	; 6
    220a:	d0 f0       	brcs	.+52     	; 0x2240 <main+0x140>
								{
									if (in.id == 25){
    220c:	89 81       	ldd	r24, Y+1	; 0x01
    220e:	89 31       	cpi	r24, 0x19	; 25
    2210:	99 f4       	brne	.+38     	; 0x2238 <main+0x138>
										score = in.data[0];
    2212:	8b 81       	ldd	r24, Y+3	; 0x03
    2214:	80 93 a6 02 	sts	0x02A6, r24
										whileplaying(score);
    2218:	80 91 a6 02 	lds	r24, 0x02A6
    221c:	0e 94 90 15 	call	0x2b20	; 0x2b20 <whileplaying>
										if (in.data[1] > 0){
    2220:	8c 81       	ldd	r24, Y+4	; 0x04
    2222:	88 23       	and	r24, r24
    2224:	49 f0       	breq	.+18     	; 0x2238 <main+0x138>
											Game_over = 1;
    2226:	f0 92 a8 02 	sts	0x02A8, r15
											death_sfx();
    222a:	0e 94 32 10 	call	0x2064	; 0x2064 <death_sfx>
											OLED_Game_Over(score);
    222e:	80 91 a6 02 	lds	r24, 0x02A6
    2232:	0e 94 f0 15 	call	0x2be0	; 0x2be0 <OLED_Game_Over>
											break;
    2236:	a4 cf       	rjmp	.-184    	; 0x2180 <main+0x80>
										} 
									}
									Ping_Pong();				// HER SENDES DET EN MELDING
    2238:	0e 94 16 12 	call	0x242c	; 0x242c <Ping_Pong>
									can_flag = 0;
    223c:	10 92 a7 02 	sts	0x02A7, r1
							_delay_ms(200);
							score = 0;
							oldscore = -1;
							whileplaying(score);

							while (!Game_over)
    2240:	80 91 a8 02 	lds	r24, 0x02A8
    2244:	88 23       	and	r24, r24
    2246:	a1 f2       	breq	.-88     	; 0x21f0 <main+0xf0>
    2248:	9b cf       	rjmp	.-202    	; 0x2180 <main+0x80>
						break;
						
						case 4  :
						{
							//printf("Highscore");
							OLED_highscore();
    224a:	0e 94 2a 16 	call	0x2c54	; 0x2c54 <OLED_highscore>
    224e:	9f ef       	ldi	r25, 0xFF	; 255
    2250:	2f ef       	ldi	r18, 0xFF	; 255
    2252:	82 e0       	ldi	r24, 0x02	; 2
    2254:	91 50       	subi	r25, 0x01	; 1
    2256:	20 40       	sbci	r18, 0x00	; 0
    2258:	80 40       	sbci	r24, 0x00	; 0
    225a:	e1 f7       	brne	.-8      	; 0x2254 <main+0x154>
    225c:	00 c0       	rjmp	.+0      	; 0x225e <main+0x15e>
    225e:	00 c0       	rjmp	.+0      	; 0x2260 <main+0x160>
    2260:	8f cf       	rjmp	.-226    	; 0x2180 <main+0x80>
						}
						break;
						
						case 6:
						{
							OLED_animation();
    2262:	0e 94 c7 17 	call	0x2f8e	; 0x2f8e <OLED_animation>
						}
						break;
    2266:	8c cf       	rjmp	.-232    	; 0x2180 <main+0x80>

00002268 <__vector_13>:
	}
}	

// ISR for CAN timer
ISR(TIMER1_COMPA_vect)
{	
    2268:	1f 92       	push	r1
    226a:	0f 92       	push	r0
    226c:	0f b6       	in	r0, 0x3f	; 63
    226e:	0f 92       	push	r0
    2270:	11 24       	eor	r1, r1
    2272:	8f 93       	push	r24
	// Enable sending of joystick data
	can_flag++;
    2274:	80 91 a7 02 	lds	r24, 0x02A7
    2278:	8f 5f       	subi	r24, 0xFF	; 255
    227a:	80 93 a7 02 	sts	0x02A7, r24
}
    227e:	8f 91       	pop	r24
    2280:	0f 90       	pop	r0
    2282:	0f be       	out	0x3f, r0	; 63
    2284:	0f 90       	pop	r0
    2286:	1f 90       	pop	r1
    2288:	18 95       	reti

0000228a <CAN_init>:
unsigned char rxflag = 0;									// Interrupt flag variable


void CAN_init()
{
	MCP_init();
    228a:	0e 94 c8 13 	call	0x2790	; 0x2790 <MCP_init>
	MCP_bitmod(MCP_RXB0CTRL, 0xF0, 0x60);					// Receive Buffer Masks OFF, 0b01100000
    228e:	40 e6       	ldi	r20, 0x60	; 96
    2290:	60 ef       	ldi	r22, 0xF0	; 240
    2292:	80 e6       	ldi	r24, 0x60	; 96
    2294:	0e 94 61 13 	call	0x26c2	; 0x26c2 <MCP_bitmod>
	MCP_bitmod(MCP_CANINTE, 0x0F, MCP_RX_INT);				// Sets interrupt receive-register
    2298:	43 e0       	ldi	r20, 0x03	; 3
    229a:	6f e0       	ldi	r22, 0x0F	; 15
    229c:	8b e2       	ldi	r24, 0x2B	; 43
    229e:	0e 94 61 13 	call	0x26c2	; 0x26c2 <MCP_bitmod>
	MCP_bitmod(MCP_CANCTRL,MODE_MASK,MODE_NORMAL);			// Setting MCP to loop-back mode MODE_MASK
    22a2:	40 e0       	ldi	r20, 0x00	; 0
    22a4:	60 ee       	ldi	r22, 0xE0	; 224
    22a6:	8f e0       	ldi	r24, 0x0F	; 15
    22a8:	0e 94 61 13 	call	0x26c2	; 0x26c2 <MCP_bitmod>
	#else
		//round up by default
		__ticks_dc = (uint32_t)(ceil(fabs(__tmp)));
	#endif

	__builtin_avr_delay_cycles(__ticks_dc);
    22ac:	80 e1       	ldi	r24, 0x10	; 16
    22ae:	8a 95       	dec	r24
    22b0:	f1 f7       	brne	.-4      	; 0x22ae <CAN_init+0x24>
    22b2:	00 c0       	rjmp	.+0      	; 0x22b4 <CAN_init+0x2a>
    22b4:	08 95       	ret

000022b6 <Can_trans_compl>:
}


int Can_trans_compl()							// sjekker om TX buffer er ferdig med transmission (TXREQ = 0)
{
	if (test_bit(MCP_read(MCP_TXB0CTRL),3))						// Check status-register value against bit 3
    22b6:	80 e3       	ldi	r24, 0x30	; 48
    22b8:	90 e0       	ldi	r25, 0x00	; 0
    22ba:	0e 94 88 13 	call	0x2710	; 0x2710 <MCP_read>
    22be:	96 95       	lsr	r25
    22c0:	87 95       	ror	r24
    22c2:	96 95       	lsr	r25
    22c4:	87 95       	ror	r24
    22c6:	96 95       	lsr	r25
    22c8:	87 95       	ror	r24
    22ca:	21 e0       	ldi	r18, 0x01	; 1
    22cc:	82 27       	eor	r24, r18
	}	
	else
	{	
		return 1;
	}
}
    22ce:	81 70       	andi	r24, 0x01	; 1
    22d0:	99 27       	eor	r25, r25
    22d2:	08 95       	ret

000022d4 <CAN_send>:
	MCP_bitmod(MCP_CANCTRL,MODE_MASK,MODE_NORMAL);			// Setting MCP to loop-back mode MODE_MASK
	_delay_us(10);
}

void CAN_send(CAN_message * msg)
{
    22d4:	1f 93       	push	r17
    22d6:	cf 93       	push	r28
    22d8:	df 93       	push	r29
    22da:	ec 01       	movw	r28, r24


	if (Can_trans_compl())									// Check registers are available 
    22dc:	0e 94 5b 11 	call	0x22b6	; 0x22b6 <Can_trans_compl>
    22e0:	89 2b       	or	r24, r25
    22e2:	69 f1       	breq	.+90     	; 0x233e <CAN_send+0x6a>
	{
		MCP_write(MCP_TXB0SIDH, msg->id >> 3);				// Write id to id handlig regiseter (standard identifier High)
    22e4:	68 81       	ld	r22, Y
    22e6:	66 95       	lsr	r22
    22e8:	66 95       	lsr	r22
    22ea:	66 95       	lsr	r22
    22ec:	70 e0       	ldi	r23, 0x00	; 0
    22ee:	81 e3       	ldi	r24, 0x31	; 49
    22f0:	90 e0       	ldi	r25, 0x00	; 0
    22f2:	0e 94 a4 13 	call	0x2748	; 0x2748 <MCP_write>
		MCP_write(MCP_TXB0SIDL, msg->id << 5);				// Write id to Id handling register (3-3, standard identifier Low)
    22f6:	68 81       	ld	r22, Y
    22f8:	80 e2       	ldi	r24, 0x20	; 32
    22fa:	68 9f       	mul	r22, r24
    22fc:	b0 01       	movw	r22, r0
    22fe:	11 24       	eor	r1, r1
    2300:	82 e3       	ldi	r24, 0x32	; 50
    2302:	90 e0       	ldi	r25, 0x00	; 0
    2304:	0e 94 a4 13 	call	0x2748	; 0x2748 <MCP_write>
		MCP_write(TXB0DLC, (msg->length));					// Write length to length handling register (3-7)
    2308:	69 81       	ldd	r22, Y+1	; 0x01
    230a:	70 e0       	ldi	r23, 0x00	; 0
    230c:	85 e3       	ldi	r24, 0x35	; 53
    230e:	90 e0       	ldi	r25, 0x00	; 0
    2310:	0e 94 a4 13 	call	0x2748	; 0x2748 <MCP_write>
		for(unsigned char i=0; i<msg->length;i++)
    2314:	89 81       	ldd	r24, Y+1	; 0x01
    2316:	88 23       	and	r24, r24
    2318:	79 f0       	breq	.+30     	; 0x2338 <CAN_send+0x64>
    231a:	10 e0       	ldi	r17, 0x00	; 0
		{
			MCP_write(TXB0D0+i,msg->data[i]);				// Write data to the data handling register (3-8). iterate through TXBnDm (n.m =1,2,3...)
    231c:	81 2f       	mov	r24, r17
    231e:	90 e0       	ldi	r25, 0x00	; 0
    2320:	fe 01       	movw	r30, r28
    2322:	e8 0f       	add	r30, r24
    2324:	f9 1f       	adc	r31, r25
    2326:	62 81       	ldd	r22, Z+2	; 0x02
    2328:	70 e0       	ldi	r23, 0x00	; 0
    232a:	c6 96       	adiw	r24, 0x36	; 54
    232c:	0e 94 a4 13 	call	0x2748	; 0x2748 <MCP_write>
	if (Can_trans_compl())									// Check registers are available 
	{
		MCP_write(MCP_TXB0SIDH, msg->id >> 3);				// Write id to id handlig regiseter (standard identifier High)
		MCP_write(MCP_TXB0SIDL, msg->id << 5);				// Write id to Id handling register (3-3, standard identifier Low)
		MCP_write(TXB0DLC, (msg->length));					// Write length to length handling register (3-7)
		for(unsigned char i=0; i<msg->length;i++)
    2330:	1f 5f       	subi	r17, 0xFF	; 255
    2332:	89 81       	ldd	r24, Y+1	; 0x01
    2334:	18 17       	cp	r17, r24
    2336:	90 f3       	brcs	.-28     	; 0x231c <CAN_send+0x48>
		{
			MCP_write(TXB0D0+i,msg->data[i]);				// Write data to the data handling register (3-8). iterate through TXBnDm (n.m =1,2,3...)
		}


		MCP_request();										// Request to send written message MCP_RTS_ALL
    2338:	0e 94 cd 13 	call	0x279a	; 0x279a <MCP_request>
    233c:	04 c0       	rjmp	.+8      	; 0x2346 <CAN_send+0x72>
	}
	else													// If message is not sent
	{
		printf("Sendte ikke\n");							// Print this
    233e:	8b e3       	ldi	r24, 0x3B	; 59
    2340:	91 e0       	ldi	r25, 0x01	; 1
    2342:	0e 94 01 1b 	call	0x3602	; 0x3602 <puts>
	}
}
    2346:	df 91       	pop	r29
    2348:	cf 91       	pop	r28
    234a:	1f 91       	pop	r17
    234c:	08 95       	ret

0000234e <CAN_read2>:
	MCP_bitmod(MCP_CANINTF, 0x01, 0);		// Clearing flag
	rxflag = 1;
}

void CAN_read2(CAN_message * msg)														// Reads a CAN message
{
    234e:	ef 92       	push	r14
    2350:	ff 92       	push	r15
    2352:	0f 93       	push	r16
    2354:	1f 93       	push	r17
    2356:	cf 93       	push	r28
    2358:	df 93       	push	r29
    235a:	7c 01       	movw	r14, r24
	if (MCP_read(MCP_CANINTF) & MCP_RX0IF) // rxflag == 1
    235c:	8c e2       	ldi	r24, 0x2C	; 44
    235e:	90 e0       	ldi	r25, 0x00	; 0
    2360:	0e 94 88 13 	call	0x2710	; 0x2710 <MCP_read>
    2364:	80 ff       	sbrs	r24, 0
    2366:	44 c0       	rjmp	.+136    	; 0x23f0 <CAN_read2+0xa2>
	{
		msg->id = (MCP_read(MCP_RXB0SIDH) << 3) | (MCP_read(MCP_RXB0SIDL) >> 5);		// Sets MSG ID = to what it reads on the registers 			
    2368:	81 e6       	ldi	r24, 0x61	; 97
    236a:	90 e0       	ldi	r25, 0x00	; 0
    236c:	0e 94 88 13 	call	0x2710	; 0x2710 <MCP_read>
    2370:	c8 2f       	mov	r28, r24
    2372:	82 e6       	ldi	r24, 0x62	; 98
    2374:	90 e0       	ldi	r25, 0x00	; 0
    2376:	0e 94 88 13 	call	0x2710	; 0x2710 <MCP_read>
    237a:	96 95       	lsr	r25
    237c:	87 95       	ror	r24
    237e:	92 95       	swap	r25
    2380:	82 95       	swap	r24
    2382:	8f 70       	andi	r24, 0x0F	; 15
    2384:	89 27       	eor	r24, r25
    2386:	9f 70       	andi	r25, 0x0F	; 15
    2388:	89 27       	eor	r24, r25
    238a:	cc 0f       	add	r28, r28
    238c:	cc 0f       	add	r28, r28
    238e:	cc 0f       	add	r28, r28
    2390:	2c 2f       	mov	r18, r28
    2392:	28 2b       	or	r18, r24
    2394:	f7 01       	movw	r30, r14
    2396:	20 83       	st	Z, r18
		msg->length = MCP_read(MCP_RXB0DLC);											// Length is set to what is read on the register 
    2398:	85 e6       	ldi	r24, 0x65	; 101
    239a:	90 e0       	ldi	r25, 0x00	; 0
    239c:	0e 94 88 13 	call	0x2710	; 0x2710 <MCP_read>
    23a0:	f7 01       	movw	r30, r14
    23a2:	81 83       	std	Z+1, r24	; 0x01
		if(msg->length > 8){
    23a4:	89 30       	cpi	r24, 0x09	; 9
    23a6:	40 f0       	brcs	.+16     	; 0x23b8 <CAN_read2+0x6a>
			msg->length = 8;
    23a8:	88 e0       	ldi	r24, 0x08	; 8
    23aa:	81 83       	std	Z+1, r24	; 0x01
    23ac:	87 01       	movw	r16, r14
    23ae:	0e 5f       	subi	r16, 0xFE	; 254
    23b0:	1f 4f       	sbci	r17, 0xFF	; 255
	MCP_bitmod(MCP_CANINTF, 0x01, 0);		// Clearing flag
	rxflag = 1;
}

void CAN_read2(CAN_message * msg)														// Reads a CAN message
{
    23b2:	c0 e0       	ldi	r28, 0x00	; 0
    23b4:	d0 e0       	ldi	r29, 0x00	; 0
    23b6:	03 c0       	rjmp	.+6      	; 0x23be <CAN_read2+0x70>
		msg->id = (MCP_read(MCP_RXB0SIDH) << 3) | (MCP_read(MCP_RXB0SIDL) >> 5);		// Sets MSG ID = to what it reads on the registers 			
		msg->length = MCP_read(MCP_RXB0DLC);											// Length is set to what is read on the register 
		if(msg->length > 8){
			msg->length = 8;
		}
		for (int i = 0; i< msg->length; i++)
    23b8:	81 11       	cpse	r24, r1
    23ba:	f8 cf       	rjmp	.-16     	; 0x23ac <CAN_read2+0x5e>
    23bc:	0f c0       	rjmp	.+30     	; 0x23dc <CAN_read2+0x8e>
		{
			msg->data[i] = MCP_read(MCP_RXB0D0+i);										// Data is sett to what is read on registers
    23be:	ce 01       	movw	r24, r28
    23c0:	8a 59       	subi	r24, 0x9A	; 154
    23c2:	9f 4f       	sbci	r25, 0xFF	; 255
    23c4:	0e 94 88 13 	call	0x2710	; 0x2710 <MCP_read>
    23c8:	f8 01       	movw	r30, r16
    23ca:	81 93       	st	Z+, r24
    23cc:	8f 01       	movw	r16, r30
		msg->id = (MCP_read(MCP_RXB0SIDH) << 3) | (MCP_read(MCP_RXB0SIDL) >> 5);		// Sets MSG ID = to what it reads on the registers 			
		msg->length = MCP_read(MCP_RXB0DLC);											// Length is set to what is read on the register 
		if(msg->length > 8){
			msg->length = 8;
		}
		for (int i = 0; i< msg->length; i++)
    23ce:	21 96       	adiw	r28, 0x01	; 1
    23d0:	f7 01       	movw	r30, r14
    23d2:	21 81       	ldd	r18, Z+1	; 0x01
    23d4:	30 e0       	ldi	r19, 0x00	; 0
    23d6:	c2 17       	cp	r28, r18
    23d8:	d3 07       	cpc	r29, r19
    23da:	8c f3       	brlt	.-30     	; 0x23be <CAN_read2+0x70>
		{
			msg->data[i] = MCP_read(MCP_RXB0D0+i);										// Data is sett to what is read on registers
		}
												
		MCP_bitmod(MCP_EFLG, 0xFF, 0);												// Clear intrupt flag. For later
    23dc:	40 e0       	ldi	r20, 0x00	; 0
    23de:	6f ef       	ldi	r22, 0xFF	; 255
    23e0:	8d e2       	ldi	r24, 0x2D	; 45
    23e2:	0e 94 61 13 	call	0x26c2	; 0x26c2 <MCP_bitmod>
		MCP_bitmod(MCP_CANINTF, 0x01, 0);										// clear the interrupt flag, so the receiver buffer registry can be overwritten
    23e6:	40 e0       	ldi	r20, 0x00	; 0
    23e8:	61 e0       	ldi	r22, 0x01	; 1
    23ea:	8c e2       	ldi	r24, 0x2C	; 44
    23ec:	0e 94 61 13 	call	0x26c2	; 0x26c2 <MCP_bitmod>
	//{
		//msg->id = -1;																	// Error feature. Message not received
		//printf("Error");
	//}	

}
    23f0:	df 91       	pop	r29
    23f2:	cf 91       	pop	r28
    23f4:	1f 91       	pop	r17
    23f6:	0f 91       	pop	r16
    23f8:	ff 90       	pop	r15
    23fa:	ef 90       	pop	r14
    23fc:	08 95       	ret

000023fe <write_eeprom>:
#include "setup.h"

void write_eeprom(unsigned int uiAddress, unsigned char ucData)
{
	// Store status register in temporary variable
	unsigned char cSREG = SREG;
    23fe:	2f b7       	in	r18, 0x3f	; 63
	// Disable global interrupts during write sequence
	cli();
    2400:	f8 94       	cli
	// Wait for completion of prev. write
	while(EECR & (1<<EEWE));
    2402:	e1 99       	sbic	0x1c, 1	; 28
    2404:	fe cf       	rjmp	.-4      	; 0x2402 <write_eeprom+0x4>
	// Set up address and data registers
	EEAR = uiAddress;
    2406:	9f bb       	out	0x1f, r25	; 31
    2408:	8e bb       	out	0x1e, r24	; 30
	EEDR = ucData;
    240a:	6d bb       	out	0x1d, r22	; 29
	// Write one to EEMWE
	set_bit(EECR,EEMWE);
    240c:	e2 9a       	sbi	0x1c, 2	; 28
	// Start eeprom write
	set_bit(EECR,EEWE);
    240e:	e1 9a       	sbi	0x1c, 1	; 28
	
	// Restore previous value of status register
	SREG = cSREG;
    2410:	2f bf       	out	0x3f, r18	; 63
	sei();
    2412:	78 94       	sei
    2414:	08 95       	ret

00002416 <EEPROM_read>:
}

unsigned char EEPROM_read(unsigned int uiAddress)
{
	// Store status register in temporary variable
	unsigned char cSREG = SREG;
    2416:	2f b7       	in	r18, 0x3f	; 63
	// Disable global interrupts during read sequence
	cli();
    2418:	f8 94       	cli
	// Wait for completion of prev. write
	while(EECR & (1<<EEWE));
    241a:	e1 99       	sbic	0x1c, 1	; 28
    241c:	fe cf       	rjmp	.-4      	; 0x241a <EEPROM_read+0x4>
	// Set up address and data registers
	EEAR = uiAddress;
    241e:	9f bb       	out	0x1f, r25	; 31
    2420:	8e bb       	out	0x1e, r24	; 30
	// Start eeprom read
	set_bit(EECR,EERE);
    2422:	e0 9a       	sbi	0x1c, 0	; 28
	// Restore previous value of status register
	SREG = cSREG;
    2424:	2f bf       	out	0x3f, r18	; 63
	sei();
    2426:	78 94       	sei
	return EEDR;
    2428:	8d b3       	in	r24, 0x1d	; 29

    242a:	08 95       	ret

0000242c <Ping_Pong>:

CAN_message oldMessage;
CAN_message myMessage;		

void Ping_Pong()
{	
    242c:	cf 93       	push	r28
    242e:	df 93       	push	r29
	myMessage.id = 3;
    2430:	83 e0       	ldi	r24, 0x03	; 3
    2432:	80 93 b6 02 	sts	0x02B6, r24
	myMessage.length = 7;
    2436:	87 e0       	ldi	r24, 0x07	; 7
    2438:	80 93 b7 02 	sts	0x02B7, r24
	myMessage.data[0]=ADC_read(0)+100;
    243c:	80 e0       	ldi	r24, 0x00	; 0
    243e:	0e 94 d7 0f 	call	0x1fae	; 0x1fae <ADC_read>
    2442:	c8 eb       	ldi	r28, 0xB8	; 184
    2444:	d2 e0       	ldi	r29, 0x02	; 2
    2446:	8c 59       	subi	r24, 0x9C	; 156
    2448:	88 83       	st	Y, r24
	myMessage.data[1]=ADC_read(1)+100;
    244a:	81 e0       	ldi	r24, 0x01	; 1
    244c:	0e 94 d7 0f 	call	0x1fae	; 0x1fae <ADC_read>
    2450:	8c 59       	subi	r24, 0x9C	; 156
    2452:	80 93 b9 02 	sts	0x02B9, r24
	myMessage.data[2]=ADC_read(2)+100;
    2456:	82 e0       	ldi	r24, 0x02	; 2
    2458:	0e 94 d7 0f 	call	0x1fae	; 0x1fae <ADC_read>
    245c:	8c 59       	subi	r24, 0x9C	; 156
    245e:	80 93 ba 02 	sts	0x02BA, r24
	myMessage.data[3]=ADC_read(3)+100;
    2462:	83 e0       	ldi	r24, 0x03	; 3
    2464:	0e 94 d7 0f 	call	0x1fae	; 0x1fae <ADC_read>
    2468:	8c 59       	subi	r24, 0x9C	; 156
    246a:	80 93 bb 02 	sts	0x02BB, r24
	myMessage.data[4]=read_knappJoy();
    246e:	0e 94 70 12 	call	0x24e0	; 0x24e0 <read_knappJoy>
    2472:	80 93 bc 02 	sts	0x02BC, r24
	myMessage.data[5]=read_knappLeft();
    2476:	0e 94 5a 13 	call	0x26b4	; 0x26b4 <read_knappLeft>
    247a:	80 93 bd 02 	sts	0x02BD, r24
	myMessage.data[6]=read_knappRight();
    247e:	0e 94 5e 13 	call	0x26bc	; 0x26bc <read_knappRight>
    2482:	80 93 be 02 	sts	0x02BE, r24
	for (int i=0; i<7; i++){
		//Try to not overflow the CAN bus
		if (myMessage.data[i] != oldMessage.data[i]){
    2486:	98 81       	ld	r25, Y
    2488:	80 91 ae 02 	lds	r24, 0x02AE
    248c:	98 13       	cpse	r25, r24
    248e:	0a c0       	rjmp	.+20     	; 0x24a4 <Ping_Pong+0x78>
    2490:	e9 eb       	ldi	r30, 0xB9	; 185
    2492:	f2 e0       	ldi	r31, 0x02	; 2
    2494:	af ea       	ldi	r26, 0xAF	; 175
    2496:	b2 e0       	ldi	r27, 0x02	; 2
    2498:	8f eb       	ldi	r24, 0xBF	; 191
    249a:	92 e0       	ldi	r25, 0x02	; 2
    249c:	31 91       	ld	r19, Z+
    249e:	2d 91       	ld	r18, X+
    24a0:	32 17       	cp	r19, r18
    24a2:	59 f0       	breq	.+22     	; 0x24ba <Ping_Pong+0x8e>
			CAN_send(&myMessage);
    24a4:	86 eb       	ldi	r24, 0xB6	; 182
    24a6:	92 e0       	ldi	r25, 0x02	; 2
    24a8:	0e 94 6a 11 	call	0x22d4	; 0x22d4 <CAN_send>
	#else
		//round up by default
		__ticks_dc = (uint32_t)(ceil(fabs(__tmp)));
	#endif

	__builtin_avr_delay_cycles(__ticks_dc);
    24ac:	8f ef       	ldi	r24, 0xFF	; 255
    24ae:	9f e2       	ldi	r25, 0x2F	; 47
    24b0:	01 97       	sbiw	r24, 0x01	; 1
    24b2:	f1 f7       	brne	.-4      	; 0x24b0 <Ping_Pong+0x84>
    24b4:	00 c0       	rjmp	.+0      	; 0x24b6 <Ping_Pong+0x8a>
    24b6:	00 00       	nop
    24b8:	03 c0       	rjmp	.+6      	; 0x24c0 <Ping_Pong+0x94>
	myMessage.data[2]=ADC_read(2)+100;
	myMessage.data[3]=ADC_read(3)+100;
	myMessage.data[4]=read_knappJoy();
	myMessage.data[5]=read_knappLeft();
	myMessage.data[6]=read_knappRight();
	for (int i=0; i<7; i++){
    24ba:	e8 17       	cp	r30, r24
    24bc:	f9 07       	cpc	r31, r25
    24be:	71 f7       	brne	.-36     	; 0x249c <Ping_Pong+0x70>
			CAN_send(&myMessage);
			_delay_ms(10);
			break;
		}
	}
	oldMessage = myMessage;
    24c0:	8a e0       	ldi	r24, 0x0A	; 10
    24c2:	e6 eb       	ldi	r30, 0xB6	; 182
    24c4:	f2 e0       	ldi	r31, 0x02	; 2
    24c6:	ac ea       	ldi	r26, 0xAC	; 172
    24c8:	b2 e0       	ldi	r27, 0x02	; 2
    24ca:	01 90       	ld	r0, Z+
    24cc:	0d 92       	st	X+, r0
    24ce:	8a 95       	dec	r24
    24d0:	e1 f7       	brne	.-8      	; 0x24ca <Ping_Pong+0x9e>
}
    24d2:	df 91       	pop	r29
    24d4:	cf 91       	pop	r28
    24d6:	08 95       	ret

000024d8 <read_y>:
}


int8_t read_y()
{
return ADC_read(0);
    24d8:	80 e0       	ldi	r24, 0x00	; 0
    24da:	0e 94 d7 0f 	call	0x1fae	; 0x1fae <ADC_read>
}
    24de:	08 95       	ret

000024e0 <read_knappJoy>:
return ADC_read(1);
}

char read_knappJoy()
{
	if (1 > (PINB & (1<<PINB2))){
    24e0:	81 e0       	ldi	r24, 0x01	; 1
    24e2:	b2 99       	sbic	0x16, 2	; 22
    24e4:	80 e0       	ldi	r24, 0x00	; 0
		return 1;
	}
	return 0;
}
    24e6:	08 95       	ret

000024e8 <calibrate>:
void joy_init()
{
	
}

void calibrate(){
    24e8:	6f 92       	push	r6
    24ea:	7f 92       	push	r7
    24ec:	8f 92       	push	r8
    24ee:	9f 92       	push	r9
    24f0:	af 92       	push	r10
    24f2:	bf 92       	push	r11
    24f4:	cf 92       	push	r12
    24f6:	df 92       	push	r13
    24f8:	ef 92       	push	r14
    24fa:	ff 92       	push	r15
    24fc:	0f 93       	push	r16
    24fe:	1f 93       	push	r17
    2500:	cf 93       	push	r28
    2502:	df 93       	push	r29
	OLED_Reset();
    2504:	0e 94 6f 14 	call	0x28de	; 0x28de <OLED_Reset>
	OLED_Home();
    2508:	0e 94 5d 14 	call	0x28ba	; 0x28ba <OLED_Home>
	OLED_goto(0, 10);
    250c:	6a e0       	ldi	r22, 0x0A	; 10
    250e:	80 e0       	ldi	r24, 0x00	; 0
    2510:	0e 94 ba 14 	call	0x2974	; 0x2974 <OLED_goto>
	OLED_print("Vennligst roter", 8);
    2514:	68 e0       	ldi	r22, 0x08	; 8
    2516:	87 e4       	ldi	r24, 0x47	; 71
    2518:	91 e0       	ldi	r25, 0x01	; 1
    251a:	0e 94 a5 14 	call	0x294a	; 0x294a <OLED_print>
	OLED_goto(2,10);
    251e:	6a e0       	ldi	r22, 0x0A	; 10
    2520:	82 e0       	ldi	r24, 0x02	; 2
    2522:	0e 94 ba 14 	call	0x2974	; 0x2974 <OLED_goto>
	OLED_print("Joystick", 8);
    2526:	68 e0       	ldi	r22, 0x08	; 8
    2528:	87 e5       	ldi	r24, 0x57	; 87
    252a:	91 e0       	ldi	r25, 0x01	; 1
    252c:	0e 94 a5 14 	call	0x294a	; 0x294a <OLED_print>
	OLED_goto(4,10);
    2530:	6a e0       	ldi	r22, 0x0A	; 10
    2532:	84 e0       	ldi	r24, 0x04	; 4
    2534:	0e 94 ba 14 	call	0x2974	; 0x2974 <OLED_goto>
	OLED_print("Deretter:", 8);
    2538:	68 e0       	ldi	r22, 0x08	; 8
    253a:	80 e6       	ldi	r24, 0x60	; 96
    253c:	91 e0       	ldi	r25, 0x01	; 1
    253e:	0e 94 a5 14 	call	0x294a	; 0x294a <OLED_print>
	OLED_goto(6,10);
    2542:	6a e0       	ldi	r22, 0x0A	; 10
    2544:	86 e0       	ldi	r24, 0x06	; 6
    2546:	0e 94 ba 14 	call	0x2974	; 0x2974 <OLED_goto>
	OLED_print("Trykk Joyknapp", 8);
    254a:	68 e0       	ldi	r22, 0x08	; 8
    254c:	8a e6       	ldi	r24, 0x6A	; 106
    254e:	91 e0       	ldi	r25, 0x01	; 1
    2550:	0e 94 a5 14 	call	0x294a	; 0x294a <OLED_print>
	
	int x_akse=ADC_read(0);
    2554:	80 e0       	ldi	r24, 0x00	; 0
    2556:	0e 94 d7 0f 	call	0x1fae	; 0x1fae <ADC_read>
    255a:	8c 01       	movw	r16, r24
	int y_akse=ADC_read(1);
    255c:	81 e0       	ldi	r24, 0x01	; 1
    255e:	0e 94 d7 0f 	call	0x1fae	; 0x1fae <ADC_read>
    2562:	ec 01       	movw	r28, r24

	int x_akse_min=100;
	int x_akse_max=-100;
	int y_akse_min=100;
	int y_akse_max=-100;
	int x_center = ADC_read(0);
    2564:	80 e0       	ldi	r24, 0x00	; 0
    2566:	0e 94 d7 0f 	call	0x1fae	; 0x1fae <ADC_read>
    256a:	98 2e       	mov	r9, r24
    256c:	89 2e       	mov	r8, r25
	int y_center = ADC_read(1);
    256e:	81 e0       	ldi	r24, 0x01	; 1
    2570:	0e 94 d7 0f 	call	0x1fae	; 0x1fae <ADC_read>
    2574:	78 2e       	mov	r7, r24
    2576:	69 2e       	mov	r6, r25
	printf("Rotate the joystick ");
    2578:	29 e7       	ldi	r18, 0x79	; 121
    257a:	31 e0       	ldi	r19, 0x01	; 1
    257c:	3f 93       	push	r19
    257e:	2f 93       	push	r18
    2580:	0e 94 ed 1a 	call	0x35da	; 0x35da <printf>
	// Wating for user and printing none calibrated values of the joystick
	while(((-10 > x_akse) | (x_akse > +10)) & ((-10 > y_akse) | (y_akse > +10))){
    2584:	2a 96       	adiw	r28, 0x0a	; 10
    2586:	81 e0       	ldi	r24, 0x01	; 1
    2588:	0f 90       	pop	r0
    258a:	0f 90       	pop	r0
    258c:	65 97       	sbiw	r28, 0x15	; 21
    258e:	08 f4       	brcc	.+2      	; 0x2592 <calibrate+0xaa>
    2590:	80 e0       	ldi	r24, 0x00	; 0
    2592:	88 23       	and	r24, r24
    2594:	71 f1       	breq	.+92     	; 0x25f2 <calibrate+0x10a>
    2596:	06 5f       	subi	r16, 0xF6	; 246
    2598:	1f 4f       	sbci	r17, 0xFF	; 255
    259a:	81 e0       	ldi	r24, 0x01	; 1
    259c:	05 31       	cpi	r16, 0x15	; 21
    259e:	11 05       	cpc	r17, r1
    25a0:	08 f4       	brcc	.+2      	; 0x25a4 <calibrate+0xbc>
    25a2:	80 e0       	ldi	r24, 0x00	; 0
    25a4:	88 23       	and	r24, r24
    25a6:	29 f1       	breq	.+74     	; 0x25f2 <calibrate+0x10a>
    25a8:	2f ef       	ldi	r18, 0xFF	; 255
    25aa:	8f ef       	ldi	r24, 0xFF	; 255
    25ac:	9e e0       	ldi	r25, 0x0E	; 14
    25ae:	21 50       	subi	r18, 0x01	; 1
    25b0:	80 40       	sbci	r24, 0x00	; 0
    25b2:	90 40       	sbci	r25, 0x00	; 0
    25b4:	e1 f7       	brne	.-8      	; 0x25ae <calibrate+0xc6>
    25b6:	00 c0       	rjmp	.+0      	; 0x25b8 <calibrate+0xd0>
    25b8:	00 00       	nop
		_delay_ms(1000);
		printf("Rotate joystick and press butten when done\n");
    25ba:	8e e8       	ldi	r24, 0x8E	; 142
    25bc:	91 e0       	ldi	r25, 0x01	; 1
    25be:	0e 94 01 1b 	call	0x3602	; 0x3602 <puts>
		 x_akse=ADC_read(0);
    25c2:	80 e0       	ldi	r24, 0x00	; 0
    25c4:	0e 94 d7 0f 	call	0x1fae	; 0x1fae <ADC_read>
    25c8:	ec 01       	movw	r28, r24
		 y_akse=ADC_read(1);
    25ca:	81 e0       	ldi	r24, 0x01	; 1
    25cc:	0e 94 d7 0f 	call	0x1fae	; 0x1fae <ADC_read>
	int y_akse_max=-100;
	int x_center = ADC_read(0);
	int y_center = ADC_read(1);
	printf("Rotate the joystick ");
	// Wating for user and printing none calibrated values of the joystick
	while(((-10 > x_akse) | (x_akse > +10)) & ((-10 > y_akse) | (y_akse > +10))){
    25d0:	9c 01       	movw	r18, r24
    25d2:	26 5f       	subi	r18, 0xF6	; 246
    25d4:	3f 4f       	sbci	r19, 0xFF	; 255
    25d6:	81 e0       	ldi	r24, 0x01	; 1
    25d8:	25 31       	cpi	r18, 0x15	; 21
    25da:	31 05       	cpc	r19, r1
    25dc:	08 f4       	brcc	.+2      	; 0x25e0 <calibrate+0xf8>
    25de:	80 e0       	ldi	r24, 0x00	; 0
    25e0:	88 23       	and	r24, r24
    25e2:	39 f0       	breq	.+14     	; 0x25f2 <calibrate+0x10a>
    25e4:	2a 96       	adiw	r28, 0x0a	; 10
    25e6:	81 e0       	ldi	r24, 0x01	; 1
    25e8:	65 97       	sbiw	r28, 0x15	; 21
    25ea:	08 f4       	brcc	.+2      	; 0x25ee <calibrate+0x106>
    25ec:	80 e0       	ldi	r24, 0x00	; 0
    25ee:	81 11       	cpse	r24, r1
    25f0:	db cf       	rjmp	.-74     	; 0x25a8 <calibrate+0xc0>
void joy_init()
{
	
}

void calibrate(){
    25f2:	0f 2e       	mov	r0, r31
    25f4:	fc e9       	ldi	r31, 0x9C	; 156
    25f6:	af 2e       	mov	r10, r31
    25f8:	bb 24       	eor	r11, r11
    25fa:	ba 94       	dec	r11
    25fc:	f0 2d       	mov	r31, r0
    25fe:	0f 2e       	mov	r0, r31
    2600:	f4 e6       	ldi	r31, 0x64	; 100
    2602:	cf 2e       	mov	r12, r31
    2604:	d1 2c       	mov	r13, r1
    2606:	f0 2d       	mov	r31, r0
    2608:	0f 2e       	mov	r0, r31
    260a:	fc e9       	ldi	r31, 0x9C	; 156
    260c:	ef 2e       	mov	r14, r31
    260e:	ff 24       	eor	r15, r15
    2610:	fa 94       	dec	r15
    2612:	f0 2d       	mov	r31, r0
    2614:	04 e6       	ldi	r16, 0x64	; 100
    2616:	10 e0       	ldi	r17, 0x00	; 0
    2618:	20 c0       	rjmp	.+64     	; 0x265a <calibrate+0x172>
    261a:	2f ef       	ldi	r18, 0xFF	; 255
    261c:	8f e7       	ldi	r24, 0x7F	; 127
    261e:	91 e0       	ldi	r25, 0x01	; 1
    2620:	21 50       	subi	r18, 0x01	; 1
    2622:	80 40       	sbci	r24, 0x00	; 0
    2624:	90 40       	sbci	r25, 0x00	; 0
    2626:	e1 f7       	brne	.-8      	; 0x2620 <calibrate+0x138>
    2628:	00 c0       	rjmp	.+0      	; 0x262a <calibrate+0x142>
    262a:	00 c0       	rjmp	.+0      	; 0x262c <calibrate+0x144>
		 x_akse=ADC_read(0);
		 y_akse=ADC_read(1);
	}
	while(!read_knappJoy()){
		_delay_ms(100);
		x_akse=ADC_read(0);
    262c:	80 e0       	ldi	r24, 0x00	; 0
    262e:	0e 94 d7 0f 	call	0x1fae	; 0x1fae <ADC_read>
    2632:	ec 01       	movw	r28, r24
		y_akse=ADC_read(1);
    2634:	81 e0       	ldi	r24, 0x01	; 1
    2636:	0e 94 d7 0f 	call	0x1fae	; 0x1fae <ADC_read>
    263a:	c0 17       	cp	r28, r16
    263c:	d1 07       	cpc	r29, r17
    263e:	0c f4       	brge	.+2      	; 0x2642 <calibrate+0x15a>
    2640:	8e 01       	movw	r16, r28
    2642:	ec 16       	cp	r14, r28
    2644:	fd 06       	cpc	r15, r29
    2646:	0c f4       	brge	.+2      	; 0x264a <calibrate+0x162>
    2648:	7e 01       	movw	r14, r28
    264a:	8c 15       	cp	r24, r12
    264c:	9d 05       	cpc	r25, r13
    264e:	0c f4       	brge	.+2      	; 0x2652 <calibrate+0x16a>
    2650:	6c 01       	movw	r12, r24
    2652:	a8 16       	cp	r10, r24
    2654:	b9 06       	cpc	r11, r25
    2656:	0c f4       	brge	.+2      	; 0x265a <calibrate+0x172>
    2658:	5c 01       	movw	r10, r24
		_delay_ms(1000);
		printf("Rotate joystick and press butten when done\n");
		 x_akse=ADC_read(0);
		 y_akse=ADC_read(1);
	}
	while(!read_knappJoy()){
    265a:	0e 94 70 12 	call	0x24e0	; 0x24e0 <read_knappJoy>
    265e:	88 23       	and	r24, r24
    2660:	e1 f2       	breq	.-72     	; 0x261a <calibrate+0x132>
		if(y_akse_min>y_akse){y_akse_min=y_akse;}
		if(y_akse_max<y_akse){y_akse_max=y_akse;}
		//printf ("xMin: %i xMaks: %i yMin: %i yMaks: %i \n", x_akse_min,x_akse_max,y_akse_min,y_akse_max);
	}
	int calibrated [] = {x_akse_min,x_akse_max,y_akse_min,y_akse_max};
	printf ("Kalibrerte verdier: \n xMin: %i xMaks: %i yMin: %i yMaks: %i \n xAVG: %i yAVG: %i \n", calibrated[0],calibrated[1],calibrated[2],calibrated[3], x_center, y_center);
    2662:	6f 92       	push	r6
    2664:	7f 92       	push	r7
    2666:	8f 92       	push	r8
    2668:	9f 92       	push	r9
    266a:	bf 92       	push	r11
    266c:	af 92       	push	r10
    266e:	df 92       	push	r13
    2670:	cf 92       	push	r12
    2672:	ff 92       	push	r15
    2674:	ef 92       	push	r14
    2676:	1f 93       	push	r17
    2678:	0f 93       	push	r16
    267a:	89 eb       	ldi	r24, 0xB9	; 185
    267c:	91 e0       	ldi	r25, 0x01	; 1
    267e:	9f 93       	push	r25
    2680:	8f 93       	push	r24
    2682:	0e 94 ed 1a 	call	0x35da	; 0x35da <printf>
    2686:	8d b7       	in	r24, 0x3d	; 61
    2688:	9e b7       	in	r25, 0x3e	; 62
    268a:	0e 96       	adiw	r24, 0x0e	; 14
    268c:	0f b6       	in	r0, 0x3f	; 63
    268e:	f8 94       	cli
    2690:	9e bf       	out	0x3e, r25	; 62
    2692:	0f be       	out	0x3f, r0	; 63
    2694:	8d bf       	out	0x3d, r24	; 61
}
    2696:	df 91       	pop	r29
    2698:	cf 91       	pop	r28
    269a:	1f 91       	pop	r17
    269c:	0f 91       	pop	r16
    269e:	ff 90       	pop	r15
    26a0:	ef 90       	pop	r14
    26a2:	df 90       	pop	r13
    26a4:	cf 90       	pop	r12
    26a6:	bf 90       	pop	r11
    26a8:	af 90       	pop	r10
    26aa:	9f 90       	pop	r9
    26ac:	8f 90       	pop	r8
    26ae:	7f 90       	pop	r7
    26b0:	6f 90       	pop	r6
    26b2:	08 95       	ret

000026b4 <read_knappLeft>:
}

// Omgjr verdiene til bool 
char read_knappLeft()
{	
	if (test_bit(PINB, PINB1)){
    26b4:	86 b3       	in	r24, 0x16	; 22
		return 1;
	}
	return 0;
}
    26b6:	86 95       	lsr	r24
    26b8:	81 70       	andi	r24, 0x01	; 1
    26ba:	08 95       	ret

000026bc <read_knappRight>:


char read_knappRight()
{
	if(test_bit(PINB, PINB0)){
    26bc:	86 b3       	in	r24, 0x16	; 22
		return 1;
	}
	return 0;		
    26be:	81 70       	andi	r24, 0x01	; 1
    26c0:	08 95       	ret

000026c2 <MCP_bitmod>:
}



void MCP_bitmod(unsigned char reg, unsigned char mask, unsigned char data)
{
    26c2:	1f 93       	push	r17
    26c4:	cf 93       	push	r28
    26c6:	df 93       	push	r29
    26c8:	18 2f       	mov	r17, r24
    26ca:	d6 2f       	mov	r29, r22
    26cc:	c4 2f       	mov	r28, r20
	PORTB &= ~(1<<PB4);					// Chip select
    26ce:	c4 98       	cbi	0x18, 4	; 24
	#else
		//round up by default
		__ticks_dc = (uint32_t)(ceil(fabs(__tmp)));
	#endif

	__builtin_avr_delay_cycles(__ticks_dc);
    26d0:	00 c0       	rjmp	.+0      	; 0x26d2 <MCP_bitmod+0x10>
    26d2:	00 c0       	rjmp	.+0      	; 0x26d4 <MCP_bitmod+0x12>
    26d4:	00 00       	nop
	_delay_us(1);
	SPI_tranciever(MCP_BITMOD);			// send command "I want to modify bit"
    26d6:	85 e0       	ldi	r24, 0x05	; 5
    26d8:	0e 94 ca 18 	call	0x3194	; 0x3194 <SPI_tranciever>
    26dc:	00 c0       	rjmp	.+0      	; 0x26de <MCP_bitmod+0x1c>
    26de:	00 c0       	rjmp	.+0      	; 0x26e0 <MCP_bitmod+0x1e>
    26e0:	00 00       	nop
	_delay_us(1);
	SPI_tranciever(reg);				// In what register do you want to operate
    26e2:	81 2f       	mov	r24, r17
    26e4:	0e 94 ca 18 	call	0x3194	; 0x3194 <SPI_tranciever>
    26e8:	00 c0       	rjmp	.+0      	; 0x26ea <MCP_bitmod+0x28>
    26ea:	00 c0       	rjmp	.+0      	; 0x26ec <MCP_bitmod+0x2a>
    26ec:	00 00       	nop
	_delay_us(1);
	SPI_tranciever(mask);				// What bit mask do you want to change
    26ee:	8d 2f       	mov	r24, r29
    26f0:	0e 94 ca 18 	call	0x3194	; 0x3194 <SPI_tranciever>
    26f4:	00 c0       	rjmp	.+0      	; 0x26f6 <MCP_bitmod+0x34>
    26f6:	00 c0       	rjmp	.+0      	; 0x26f8 <MCP_bitmod+0x36>
    26f8:	00 00       	nop
	_delay_us(1);
	SPI_tranciever(data);				// What to you want to change to
    26fa:	8c 2f       	mov	r24, r28
    26fc:	0e 94 ca 18 	call	0x3194	; 0x3194 <SPI_tranciever>
    2700:	00 c0       	rjmp	.+0      	; 0x2702 <MCP_bitmod+0x40>
    2702:	00 c0       	rjmp	.+0      	; 0x2704 <MCP_bitmod+0x42>
    2704:	00 00       	nop
	_delay_us(1);
	PORTB |=(1<<PB4);						// chip de-select
    2706:	c4 9a       	sbi	0x18, 4	; 24
	
}
    2708:	df 91       	pop	r29
    270a:	cf 91       	pop	r28
    270c:	1f 91       	pop	r17
    270e:	08 95       	ret

00002710 <MCP_read>:
// Note that bitmod will change multiple bits unless one specifies which bit address to change. f.ex: bit = DLC3 & DLC2
// This will only change these two, but to use the function this way DLC3 and DCL2 must be defined first

unsigned int MCP_read(unsigned int address)
{
    2710:	cf 93       	push	r28
    2712:	c8 2f       	mov	r28, r24
	unsigned int result;
	PORTB &= ~(1<<PB4);				// Selects can controller
    2714:	c4 98       	cbi	0x18, 4	; 24
    2716:	00 c0       	rjmp	.+0      	; 0x2718 <MCP_read+0x8>
    2718:	00 c0       	rjmp	.+0      	; 0x271a <MCP_read+0xa>
    271a:	00 00       	nop
	_delay_us(1);
	SPI_tranciever(MCP_READ);		// Send command "I want to read MCP
    271c:	83 e0       	ldi	r24, 0x03	; 3
    271e:	0e 94 ca 18 	call	0x3194	; 0x3194 <SPI_tranciever>
    2722:	00 c0       	rjmp	.+0      	; 0x2724 <MCP_read+0x14>
    2724:	00 c0       	rjmp	.+0      	; 0x2726 <MCP_read+0x16>
    2726:	00 00       	nop
	_delay_us(1);
	SPI_tranciever(address);		// Address we want to read
    2728:	8c 2f       	mov	r24, r28
    272a:	0e 94 ca 18 	call	0x3194	; 0x3194 <SPI_tranciever>
    272e:	00 c0       	rjmp	.+0      	; 0x2730 <MCP_read+0x20>
    2730:	00 c0       	rjmp	.+0      	; 0x2732 <MCP_read+0x22>
    2732:	00 00       	nop
	_delay_us(1);
	result = SPI_tranciever(0xFF);	// Save What we read in result
    2734:	8f ef       	ldi	r24, 0xFF	; 255
    2736:	0e 94 ca 18 	call	0x3194	; 0x3194 <SPI_tranciever>
    273a:	00 c0       	rjmp	.+0      	; 0x273c <MCP_read+0x2c>
    273c:	00 c0       	rjmp	.+0      	; 0x273e <MCP_read+0x2e>
    273e:	00 00       	nop
	_delay_us(1);
	PORTB |=(1<<PB4);					// De-selects can controller
    2740:	c4 9a       	sbi	0x18, 4	; 24
	return result;					// Return what we read
}
    2742:	90 e0       	ldi	r25, 0x00	; 0
    2744:	cf 91       	pop	r28
    2746:	08 95       	ret

00002748 <MCP_write>:

void MCP_write(unsigned int address, unsigned int data)
{
    2748:	cf 93       	push	r28
    274a:	df 93       	push	r29
    274c:	d8 2f       	mov	r29, r24
    274e:	c6 2f       	mov	r28, r22
	PORTB &= ~(1<<PB4);	
    2750:	c4 98       	cbi	0x18, 4	; 24
    2752:	00 c0       	rjmp	.+0      	; 0x2754 <MCP_write+0xc>
    2754:	00 c0       	rjmp	.+0      	; 0x2756 <MCP_write+0xe>
    2756:	00 00       	nop
	_delay_us(1);				
	SPI_tranciever(MCP_WRITE);		// Send command "I want to write"
    2758:	82 e0       	ldi	r24, 0x02	; 2
    275a:	0e 94 ca 18 	call	0x3194	; 0x3194 <SPI_tranciever>
    275e:	00 c0       	rjmp	.+0      	; 0x2760 <MCP_write+0x18>
    2760:	00 c0       	rjmp	.+0      	; 0x2762 <MCP_write+0x1a>
    2762:	00 00       	nop
	_delay_us(1);
	SPI_tranciever(address);		// Where we want to write to
    2764:	8d 2f       	mov	r24, r29
    2766:	0e 94 ca 18 	call	0x3194	; 0x3194 <SPI_tranciever>
    276a:	00 c0       	rjmp	.+0      	; 0x276c <MCP_write+0x24>
    276c:	00 c0       	rjmp	.+0      	; 0x276e <MCP_write+0x26>
    276e:	00 00       	nop
	_delay_us(1);
	SPI_tranciever(data);			// What we want to write
    2770:	8c 2f       	mov	r24, r28
    2772:	0e 94 ca 18 	call	0x3194	; 0x3194 <SPI_tranciever>
    2776:	00 c0       	rjmp	.+0      	; 0x2778 <MCP_write+0x30>
    2778:	00 c0       	rjmp	.+0      	; 0x277a <MCP_write+0x32>
    277a:	00 00       	nop
	_delay_us(1);
	PORTB |=(1<<PB4);
    277c:	c4 9a       	sbi	0x18, 4	; 24
}
    277e:	df 91       	pop	r29
    2780:	cf 91       	pop	r28
    2782:	08 95       	ret

00002784 <MCP_reset>:

void MCP_reset()
{
	PORTB &= ~(1<<PB4);	
    2784:	c4 98       	cbi	0x18, 4	; 24
	SPI_tranciever(MCP_RESET);		// Send command "I want to reset MCP"
    2786:	80 ec       	ldi	r24, 0xC0	; 192
    2788:	0e 94 ca 18 	call	0x3194	; 0x3194 <SPI_tranciever>
	PORTB |=(1<<PB4);
    278c:	c4 9a       	sbi	0x18, 4	; 24
    278e:	08 95       	ret

00002790 <MCP_init>:
#include <avr/io.h>
#include <util/delay.h>
void MCP_init()
{
	// Makes sure registers are clean and MCP in control mode
	SPI_MasterInit();
    2790:	0e 94 c1 18 	call	0x3182	; 0x3182 <SPI_MasterInit>
	MCP_reset();
    2794:	0e 94 c2 13 	call	0x2784	; 0x2784 <MCP_reset>
    2798:	08 95       	ret

0000279a <MCP_request>:
	PORTB |=(1<<PB4);
}

void MCP_request()
{
	PORTB &= ~(1<<PB4);
    279a:	c4 98       	cbi	0x18, 4	; 24
	SPI_tranciever(MCP_RTS_ALL);	// Send command "Request to send for all ports" (TX0, TX1 and TX2)
    279c:	87 e8       	ldi	r24, 0x87	; 135
    279e:	0e 94 ca 18 	call	0x3194	; 0x3194 <SPI_tranciever>
	PORTB |=(1<<PB4);
    27a2:	c4 9a       	sbi	0x18, 4	; 24
    27a4:	08 95       	ret

000027a6 <init_OLED>:

//sei();

void init_OLED()
{
	MCUCR |= (1<<SRE);
    27a6:	85 b7       	in	r24, 0x35	; 53
    27a8:	80 68       	ori	r24, 0x80	; 128
    27aa:	85 bf       	out	0x35, r24	; 53
	SFIOR |= (1<<XMM2);
    27ac:	80 b7       	in	r24, 0x30	; 48
    27ae:	80 62       	ori	r24, 0x20	; 32
    27b0:	80 bf       	out	0x30, r24	; 48
	*write_c = (0xae);        //  display  off
    27b2:	e0 91 08 01 	lds	r30, 0x0108
    27b6:	f0 91 09 01 	lds	r31, 0x0109
    27ba:	8e ea       	ldi	r24, 0xAE	; 174
    27bc:	80 83       	st	Z, r24
	*write_c = (0xa1);        //segment  remap
    27be:	e0 91 08 01 	lds	r30, 0x0108
    27c2:	f0 91 09 01 	lds	r31, 0x0109
    27c6:	81 ea       	ldi	r24, 0xA1	; 161
    27c8:	80 83       	st	Z, r24
	*write_c = (0xda);        //common  pads  hardware:  alternative
    27ca:	e0 91 08 01 	lds	r30, 0x0108
    27ce:	f0 91 09 01 	lds	r31, 0x0109
    27d2:	8a ed       	ldi	r24, 0xDA	; 218
    27d4:	80 83       	st	Z, r24
	*write_c = (0x12);
    27d6:	e0 91 08 01 	lds	r30, 0x0108
    27da:	f0 91 09 01 	lds	r31, 0x0109
    27de:	82 e1       	ldi	r24, 0x12	; 18
    27e0:	80 83       	st	Z, r24
	*write_c = (0xc8);        //common output scan direction:com63~com0
    27e2:	e0 91 08 01 	lds	r30, 0x0108
    27e6:	f0 91 09 01 	lds	r31, 0x0109
    27ea:	88 ec       	ldi	r24, 0xC8	; 200
    27ec:	80 83       	st	Z, r24
	*write_c = (0xa8);        //multiplex  ration  mode:63
    27ee:	e0 91 08 01 	lds	r30, 0x0108
    27f2:	f0 91 09 01 	lds	r31, 0x0109
    27f6:	88 ea       	ldi	r24, 0xA8	; 168
    27f8:	80 83       	st	Z, r24
	*write_c = (0x3f);
    27fa:	e0 91 08 01 	lds	r30, 0x0108
    27fe:	f0 91 09 01 	lds	r31, 0x0109
    2802:	8f e3       	ldi	r24, 0x3F	; 63
    2804:	80 83       	st	Z, r24
	*write_c = (0xd5);        //display divide ratio/osc. freq. mode
    2806:	e0 91 08 01 	lds	r30, 0x0108
    280a:	f0 91 09 01 	lds	r31, 0x0109
    280e:	85 ed       	ldi	r24, 0xD5	; 213
    2810:	80 83       	st	Z, r24
	*write_c = (0x80);
    2812:	e0 91 08 01 	lds	r30, 0x0108
    2816:	f0 91 09 01 	lds	r31, 0x0109
    281a:	80 e8       	ldi	r24, 0x80	; 128
    281c:	80 83       	st	Z, r24
	*write_c = (0x81);        //contrast  control
    281e:	e0 91 08 01 	lds	r30, 0x0108
    2822:	f0 91 09 01 	lds	r31, 0x0109
    2826:	81 e8       	ldi	r24, 0x81	; 129
    2828:	80 83       	st	Z, r24
	*write_c = (0x50);
    282a:	e0 91 08 01 	lds	r30, 0x0108
    282e:	f0 91 09 01 	lds	r31, 0x0109
    2832:	80 e5       	ldi	r24, 0x50	; 80
    2834:	80 83       	st	Z, r24
	*write_c = (0xd9);        //set  pre-charge  period
    2836:	e0 91 08 01 	lds	r30, 0x0108
    283a:	f0 91 09 01 	lds	r31, 0x0109
    283e:	89 ed       	ldi	r24, 0xD9	; 217
    2840:	80 83       	st	Z, r24
	*write_c = (0x21);
    2842:	e0 91 08 01 	lds	r30, 0x0108
    2846:	f0 91 09 01 	lds	r31, 0x0109
    284a:	81 e2       	ldi	r24, 0x21	; 33
    284c:	80 83       	st	Z, r24
	*write_c = (0x20);        //Set  Memory  Addressing  Mode
    284e:	e0 91 08 01 	lds	r30, 0x0108
    2852:	f0 91 09 01 	lds	r31, 0x0109
    2856:	80 e2       	ldi	r24, 0x20	; 32
    2858:	80 83       	st	Z, r24
	*write_c = (0x02);
    285a:	e0 91 08 01 	lds	r30, 0x0108
    285e:	f0 91 09 01 	lds	r31, 0x0109
    2862:	82 e0       	ldi	r24, 0x02	; 2
    2864:	80 83       	st	Z, r24
	*write_c = (0xdb);        //VCOM  deselect  level  mode
    2866:	e0 91 08 01 	lds	r30, 0x0108
    286a:	f0 91 09 01 	lds	r31, 0x0109
    286e:	8b ed       	ldi	r24, 0xDB	; 219
    2870:	80 83       	st	Z, r24
	*write_c = (0x30);
    2872:	e0 91 08 01 	lds	r30, 0x0108
    2876:	f0 91 09 01 	lds	r31, 0x0109
    287a:	80 e3       	ldi	r24, 0x30	; 48
    287c:	80 83       	st	Z, r24
	*write_c = (0xad);        //master  configuration
    287e:	e0 91 08 01 	lds	r30, 0x0108
    2882:	f0 91 09 01 	lds	r31, 0x0109
    2886:	8d ea       	ldi	r24, 0xAD	; 173
    2888:	80 83       	st	Z, r24
	*write_c = (0x00);
    288a:	e0 91 08 01 	lds	r30, 0x0108
    288e:	f0 91 09 01 	lds	r31, 0x0109
    2892:	10 82       	st	Z, r1
	*write_c = (0xa4);        //out  follows  RAM  content
    2894:	e0 91 08 01 	lds	r30, 0x0108
    2898:	f0 91 09 01 	lds	r31, 0x0109
    289c:	84 ea       	ldi	r24, 0xA4	; 164
    289e:	80 83       	st	Z, r24
	*write_c = (0xa6);        //set  normal  display
    28a0:	e0 91 08 01 	lds	r30, 0x0108
    28a4:	f0 91 09 01 	lds	r31, 0x0109
    28a8:	86 ea       	ldi	r24, 0xA6	; 166
    28aa:	80 83       	st	Z, r24
	*write_c = (0xaf);        //  display  on
    28ac:	e0 91 08 01 	lds	r30, 0x0108
    28b0:	f0 91 09 01 	lds	r31, 0x0109
    28b4:	8f ea       	ldi	r24, 0xAF	; 175
    28b6:	80 83       	st	Z, r24
    28b8:	08 95       	ret

000028ba <OLED_Home>:
	OLED_Home();
}

void OLED_Home(void)
{
	*write_c = (0xB0);
    28ba:	e0 91 08 01 	lds	r30, 0x0108
    28be:	f0 91 09 01 	lds	r31, 0x0109
    28c2:	80 eb       	ldi	r24, 0xB0	; 176
    28c4:	80 83       	st	Z, r24
	*write_c = (0x00);
    28c6:	e0 91 08 01 	lds	r30, 0x0108
    28ca:	f0 91 09 01 	lds	r31, 0x0109
    28ce:	10 82       	st	Z, r1
	*write_c = (0x10);
    28d0:	e0 91 08 01 	lds	r30, 0x0108
    28d4:	f0 91 09 01 	lds	r31, 0x0109
    28d8:	80 e1       	ldi	r24, 0x10	; 16
    28da:	80 83       	st	Z, r24
    28dc:	08 95       	ret

000028de <OLED_Reset>:
	*write_c = (0xa6);        //set  normal  display
	*write_c = (0xaf);        //  display  on
}

void OLED_Reset(void)
{
    28de:	20 eb       	ldi	r18, 0xB0	; 176
	for (int i = 0; i<8; i++){
		*write_c = (0xB0+i);
    28e0:	40 e8       	ldi	r20, 0x80	; 128
    28e2:	30 e0       	ldi	r19, 0x00	; 0
    28e4:	e0 91 08 01 	lds	r30, 0x0108
    28e8:	f0 91 09 01 	lds	r31, 0x0109
    28ec:	20 83       	st	Z, r18
    28ee:	84 2f       	mov	r24, r20
    28f0:	93 2f       	mov	r25, r19
		for (int j = 0; j<128; j++){
			*write_d = (0x00);
    28f2:	e0 91 06 01 	lds	r30, 0x0106
    28f6:	f0 91 07 01 	lds	r31, 0x0107
    28fa:	10 82       	st	Z, r1
    28fc:	01 97       	sbiw	r24, 0x01	; 1

void OLED_Reset(void)
{
	for (int i = 0; i<8; i++){
		*write_c = (0xB0+i);
		for (int j = 0; j<128; j++){
    28fe:	00 97       	sbiw	r24, 0x00	; 0
    2900:	c1 f7       	brne	.-16     	; 0x28f2 <OLED_Reset+0x14>
    2902:	2f 5f       	subi	r18, 0xFF	; 255
	*write_c = (0xaf);        //  display  on
}

void OLED_Reset(void)
{
	for (int i = 0; i<8; i++){
    2904:	28 3b       	cpi	r18, 0xB8	; 184
    2906:	71 f7       	brne	.-36     	; 0x28e4 <OLED_Reset+0x6>
		*write_c = (0xB0+i);
		for (int j = 0; j<128; j++){
			*write_d = (0x00);
		}
	}
	OLED_Home();
    2908:	0e 94 5d 14 	call	0x28ba	; 0x28ba <OLED_Home>
    290c:	08 95       	ret

0000290e <OLED_print_char>:


// denne tar et aski tall, printer over rows
int OLED_print_char(char c, char font)
{
		for (int i = 0 ; i<font ; i++)
    290e:	70 e0       	ldi	r23, 0x00	; 0
    2910:	16 16       	cp	r1, r22
    2912:	17 06       	cpc	r1, r23
    2914:	bc f4       	brge	.+46     	; 0x2944 <OLED_print_char+0x36>
    2916:	e8 2f       	mov	r30, r24
    2918:	f0 e0       	ldi	r31, 0x00	; 0
    291a:	ee 0f       	add	r30, r30
    291c:	ff 1f       	adc	r31, r31
    291e:	ee 0f       	add	r30, r30
    2920:	ff 1f       	adc	r31, r31
    2922:	ee 0f       	add	r30, r30
    2924:	ff 1f       	adc	r31, r31
    2926:	e0 59       	subi	r30, 0x90	; 144
    2928:	f4 4e       	sbci	r31, 0xE4	; 228
    292a:	80 e0       	ldi	r24, 0x00	; 0
    292c:	90 e0       	ldi	r25, 0x00	; 0
			//{
				//*write_d = pgm_read_byte(&font5[c-' '][i]); // better than write_d(font8[c-' '][i]);
			//}
			//else
			//{
				*write_d = pgm_read_byte(&font8[c-' '][i]); // better than write_d(font8[c-' '][i]);
    292e:	a0 91 06 01 	lds	r26, 0x0106
    2932:	b0 91 07 01 	lds	r27, 0x0107
    2936:	24 91       	lpm	r18, Z
    2938:	2c 93       	st	X, r18


// denne tar et aski tall, printer over rows
int OLED_print_char(char c, char font)
{
		for (int i = 0 ; i<font ; i++)
    293a:	01 96       	adiw	r24, 0x01	; 1
    293c:	31 96       	adiw	r30, 0x01	; 1
    293e:	86 17       	cp	r24, r22
    2940:	97 07       	cpc	r25, r23
    2942:	ac f3       	brlt	.-22     	; 0x292e <OLED_print_char+0x20>
			//{
				*write_d = pgm_read_byte(&font8[c-' '][i]); // better than write_d(font8[c-' '][i]);
			//}
		}
	return 0;
}
    2944:	80 e0       	ldi	r24, 0x00	; 0
    2946:	90 e0       	ldi	r25, 0x00	; 0
    2948:	08 95       	ret

0000294a <OLED_print>:
}


// denne tar en char array 
int OLED_print(char *d, char font)
{
    294a:	1f 93       	push	r17
    294c:	cf 93       	push	r28
    294e:	df 93       	push	r29
    2950:	ec 01       	movw	r28, r24
    2952:	16 2f       	mov	r17, r22
	int i = 0;
	// looper over den lenkede listen som er stringen
	while (d[i] != '\0')
    2954:	88 81       	ld	r24, Y
    2956:	88 23       	and	r24, r24
    2958:	39 f0       	breq	.+14     	; 0x2968 <OLED_print+0x1e>
    295a:	21 96       	adiw	r28, 0x01	; 1
	{
		OLED_print_char(d[i], font); 
    295c:	61 2f       	mov	r22, r17
    295e:	0e 94 87 14 	call	0x290e	; 0x290e <OLED_print_char>
// denne tar en char array 
int OLED_print(char *d, char font)
{
	int i = 0;
	// looper over den lenkede listen som er stringen
	while (d[i] != '\0')
    2962:	89 91       	ld	r24, Y+
    2964:	81 11       	cpse	r24, r1
    2966:	fa cf       	rjmp	.-12     	; 0x295c <OLED_print+0x12>
	{
		OLED_print_char(d[i], font); 
		i++;
	}
	return 0;
}
    2968:	80 e0       	ldi	r24, 0x00	; 0
    296a:	90 e0       	ldi	r25, 0x00	; 0
    296c:	df 91       	pop	r29
    296e:	cf 91       	pop	r28
    2970:	1f 91       	pop	r17
    2972:	08 95       	ret

00002974 <OLED_goto>:
	
}

void OLED_goto(char line, char col)		// Input in page addressing mode, line 0-7 
{
	if ( line < 8 )
    2974:	88 30       	cpi	r24, 0x08	; 8
    2976:	a8 f4       	brcc	.+42     	; 0x29a2 <OLED_goto+0x2e>
	{
		char lsb = col & 0x0F;
    2978:	96 2f       	mov	r25, r22
    297a:	9f 70       	andi	r25, 0x0F	; 15
		char msb = col & 0xF0;
		msb = (msb>>4);	
						// Bitwise operator to get the 4 MSB
		*write_c = (0xB0 + line);			// Page start address number (Line number)
    297c:	e0 91 08 01 	lds	r30, 0x0108
    2980:	f0 91 09 01 	lds	r31, 0x0109
    2984:	80 55       	subi	r24, 0x50	; 80
    2986:	80 83       	st	Z, r24
		*write_c = (0x00 | lsb);			// Lower Column start address
    2988:	e0 91 08 01 	lds	r30, 0x0108
    298c:	f0 91 09 01 	lds	r31, 0x0109
    2990:	90 83       	st	Z, r25
		*write_c = (0x10 | msb);			// Higher Column start address
    2992:	e0 91 08 01 	lds	r30, 0x0108
    2996:	f0 91 09 01 	lds	r31, 0x0109
{
	if ( line < 8 )
	{
		char lsb = col & 0x0F;
		char msb = col & 0xF0;
		msb = (msb>>4);	
    299a:	62 95       	swap	r22
    299c:	6f 70       	andi	r22, 0x0F	; 15
						// Bitwise operator to get the 4 MSB
		*write_c = (0xB0 + line);			// Page start address number (Line number)
		*write_c = (0x00 | lsb);			// Lower Column start address
		*write_c = (0x10 | msb);			// Higher Column start address
    299e:	60 61       	ori	r22, 0x10	; 16
    29a0:	60 83       	st	Z, r22
    29a2:	08 95       	ret

000029a4 <OLED_menu>:




void OLED_menu()
{
    29a4:	ef 92       	push	r14
    29a6:	ff 92       	push	r15
    29a8:	0f 93       	push	r16
    29aa:	1f 93       	push	r17
    29ac:	cf 93       	push	r28
    29ae:	df 93       	push	r29
	OLED_Reset();
    29b0:	0e 94 6f 14 	call	0x28de	; 0x28de <OLED_Reset>
	OLED_Home();
    29b4:	0e 94 5d 14 	call	0x28ba	; 0x28ba <OLED_Home>
	OLED_goto(0, 105);
    29b8:	69 e6       	ldi	r22, 0x69	; 105
    29ba:	80 e0       	ldi	r24, 0x00	; 0
    29bc:	0e 94 ba 14 	call	0x2974	; 0x2974 <OLED_goto>
	OLED_print(&Name, 8);
    29c0:	68 e0       	ldi	r22, 0x08	; 8
    29c2:	89 ea       	ldi	r24, 0xA9	; 169
    29c4:	92 e0       	ldi	r25, 0x02	; 2
    29c6:	0e 94 a5 14 	call	0x294a	; 0x294a <OLED_print>
	OLED_goto(0,0);
    29ca:	60 e0       	ldi	r22, 0x00	; 0
    29cc:	80 e0       	ldi	r24, 0x00	; 0
    29ce:	0e 94 ba 14 	call	0x2974	; 0x2974 <OLED_goto>
	OLED_print("PokePong!", 8);
    29d2:	68 e0       	ldi	r22, 0x08	; 8
    29d4:	8b e0       	ldi	r24, 0x0B	; 11
    29d6:	92 e0       	ldi	r25, 0x02	; 2
    29d8:	0e 94 a5 14 	call	0x294a	; 0x294a <OLED_print>
	OLED_goto(2, 10);
    29dc:	6a e0       	ldi	r22, 0x0A	; 10
    29de:	82 e0       	ldi	r24, 0x02	; 2
    29e0:	0e 94 ba 14 	call	0x2974	; 0x2974 <OLED_goto>
	OLED_print("Ping-Pong", 8);
    29e4:	68 e0       	ldi	r22, 0x08	; 8
    29e6:	85 e1       	ldi	r24, 0x15	; 21
    29e8:	92 e0       	ldi	r25, 0x02	; 2
    29ea:	0e 94 a5 14 	call	0x294a	; 0x294a <OLED_print>
	OLED_goto(4, 10);
    29ee:	6a e0       	ldi	r22, 0x0A	; 10
    29f0:	84 e0       	ldi	r24, 0x04	; 4
    29f2:	0e 94 ba 14 	call	0x2974	; 0x2974 <OLED_goto>
	OLED_print("Highscore", 8);
    29f6:	68 e0       	ldi	r22, 0x08	; 8
    29f8:	8f e1       	ldi	r24, 0x1F	; 31
    29fa:	92 e0       	ldi	r25, 0x02	; 2
    29fc:	0e 94 a5 14 	call	0x294a	; 0x294a <OLED_print>
	OLED_goto(6, 10);
    2a00:	6a e0       	ldi	r22, 0x0A	; 10
    2a02:	86 e0       	ldi	r24, 0x06	; 6
    2a04:	0e 94 ba 14 	call	0x2974	; 0x2974 <OLED_goto>
	OLED_print("Random", 8);
    2a08:	68 e0       	ldi	r22, 0x08	; 8
    2a0a:	89 e2       	ldi	r24, 0x29	; 41
    2a0c:	92 e0       	ldi	r25, 0x02	; 2
    2a0e:	0e 94 a5 14 	call	0x294a	; 0x294a <OLED_print>
	OLED_goto(p, 0);
    2a12:	60 e0       	ldi	r22, 0x00	; 0
    2a14:	80 91 0c 01 	lds	r24, 0x010C
    2a18:	0e 94 ba 14 	call	0x2974	; 0x2974 <OLED_goto>
	OLED_print_char('z'+5, 8);
    2a1c:	68 e0       	ldi	r22, 0x08	; 8
    2a1e:	8f e7       	ldi	r24, 0x7F	; 127
    2a20:	0e 94 87 14 	call	0x290e	; 0x290e <OLED_print_char>
		}
		else if (read_y() < -50)
		{
			
			buzz(100,5);
			OLED_goto(p, 0);
    2a24:	cc e0       	ldi	r28, 0x0C	; 12
    2a26:	d1 e0       	ldi	r29, 0x01	; 1
			OLED_print_char(' ',8); //blank
			p=p+2;
			if(p>6)
			{
				p=2;
    2a28:	68 94       	set
    2a2a:	ee 24       	eor	r14, r14
    2a2c:	e1 f8       	bld	r14, 1
    2a2e:	f1 2c       	mov	r15, r1
			OLED_goto(p, 0);
			OLED_print_char(' ', 8);
			p=p-2;
			if(p<2)
			{
				p=6;
    2a30:	06 e0       	ldi	r16, 0x06	; 6
    2a32:	10 e0       	ldi	r17, 0x00	; 0
	OLED_goto(p, 0);
	OLED_print_char('z'+5, 8);
	
	
	
	while (!read_knappJoy())
    2a34:	69 c0       	rjmp	.+210    	; 0x2b08 <OLED_menu+0x164>
	{
		if (read_y() > 50)
    2a36:	0e 94 6c 12 	call	0x24d8	; 0x24d8 <read_y>
    2a3a:	83 33       	cpi	r24, 0x33	; 51
    2a3c:	8c f1       	brlt	.+98     	; 0x2aa0 <OLED_menu+0xfc>
		{	
			buzz(100,5);
    2a3e:	65 e0       	ldi	r22, 0x05	; 5
    2a40:	70 e0       	ldi	r23, 0x00	; 0
    2a42:	84 e6       	ldi	r24, 0x64	; 100
    2a44:	90 e0       	ldi	r25, 0x00	; 0
    2a46:	0e 94 19 10 	call	0x2032	; 0x2032 <buzz>
			// Blanker forrige
			OLED_goto(p, 0);
    2a4a:	60 e0       	ldi	r22, 0x00	; 0
    2a4c:	88 81       	ld	r24, Y
    2a4e:	0e 94 ba 14 	call	0x2974	; 0x2974 <OLED_goto>
			OLED_print_char(' ', 8);
    2a52:	68 e0       	ldi	r22, 0x08	; 8
    2a54:	80 e2       	ldi	r24, 0x20	; 32
    2a56:	0e 94 87 14 	call	0x290e	; 0x290e <OLED_print_char>
			p=p-2;
    2a5a:	80 91 0c 01 	lds	r24, 0x010C
    2a5e:	90 91 0d 01 	lds	r25, 0x010D
    2a62:	02 97       	sbiw	r24, 0x02	; 2
			if(p<2)
    2a64:	82 30       	cpi	r24, 0x02	; 2
    2a66:	91 05       	cpc	r25, r1
    2a68:	2c f0       	brlt	.+10     	; 0x2a74 <OLED_menu+0xd0>
		{	
			buzz(100,5);
			// Blanker forrige
			OLED_goto(p, 0);
			OLED_print_char(' ', 8);
			p=p-2;
    2a6a:	90 93 0d 01 	sts	0x010D, r25
    2a6e:	80 93 0c 01 	sts	0x010C, r24
    2a72:	04 c0       	rjmp	.+8      	; 0x2a7c <OLED_menu+0xd8>
			if(p<2)
			{
				p=6;
    2a74:	10 93 0d 01 	sts	0x010D, r17
    2a78:	00 93 0c 01 	sts	0x010C, r16
			}
			// skriver pil
			OLED_goto(p, 0);
    2a7c:	60 e0       	ldi	r22, 0x00	; 0
    2a7e:	88 81       	ld	r24, Y
    2a80:	0e 94 ba 14 	call	0x2974	; 0x2974 <OLED_goto>
			OLED_print_char('z'+5, 8);
    2a84:	68 e0       	ldi	r22, 0x08	; 8
    2a86:	8f e7       	ldi	r24, 0x7F	; 127
    2a88:	0e 94 87 14 	call	0x290e	; 0x290e <OLED_print_char>
	#else
		//round up by default
		__ticks_dc = (uint32_t)(ceil(fabs(__tmp)));
	#endif

	__builtin_avr_delay_cycles(__ticks_dc);
    2a8c:	2f ef       	ldi	r18, 0xFF	; 255
    2a8e:	8f e7       	ldi	r24, 0x7F	; 127
    2a90:	94 e0       	ldi	r25, 0x04	; 4
    2a92:	21 50       	subi	r18, 0x01	; 1
    2a94:	80 40       	sbci	r24, 0x00	; 0
    2a96:	90 40       	sbci	r25, 0x00	; 0
    2a98:	e1 f7       	brne	.-8      	; 0x2a92 <OLED_menu+0xee>
    2a9a:	00 c0       	rjmp	.+0      	; 0x2a9c <OLED_menu+0xf8>
    2a9c:	00 00       	nop
    2a9e:	34 c0       	rjmp	.+104    	; 0x2b08 <OLED_menu+0x164>
			_delay_ms(300); // delay etter vi har trykket ikke nr vi skal trykke
			
			
		}
		else if (read_y() < -50)
    2aa0:	0e 94 6c 12 	call	0x24d8	; 0x24d8 <read_y>
    2aa4:	8e 3c       	cpi	r24, 0xCE	; 206
    2aa6:	84 f5       	brge	.+96     	; 0x2b08 <OLED_menu+0x164>
		{
			
			buzz(100,5);
    2aa8:	65 e0       	ldi	r22, 0x05	; 5
    2aaa:	70 e0       	ldi	r23, 0x00	; 0
    2aac:	84 e6       	ldi	r24, 0x64	; 100
    2aae:	90 e0       	ldi	r25, 0x00	; 0
    2ab0:	0e 94 19 10 	call	0x2032	; 0x2032 <buzz>
			OLED_goto(p, 0);
    2ab4:	60 e0       	ldi	r22, 0x00	; 0
    2ab6:	88 81       	ld	r24, Y
    2ab8:	0e 94 ba 14 	call	0x2974	; 0x2974 <OLED_goto>
			OLED_print_char(' ',8); //blank
    2abc:	68 e0       	ldi	r22, 0x08	; 8
    2abe:	80 e2       	ldi	r24, 0x20	; 32
    2ac0:	0e 94 87 14 	call	0x290e	; 0x290e <OLED_print_char>
			p=p+2;
    2ac4:	80 91 0c 01 	lds	r24, 0x010C
    2ac8:	90 91 0d 01 	lds	r25, 0x010D
    2acc:	02 96       	adiw	r24, 0x02	; 2
			if(p>6)
    2ace:	87 30       	cpi	r24, 0x07	; 7
    2ad0:	91 05       	cpc	r25, r1
    2ad2:	2c f4       	brge	.+10     	; 0x2ade <OLED_menu+0x13a>
		{
			
			buzz(100,5);
			OLED_goto(p, 0);
			OLED_print_char(' ',8); //blank
			p=p+2;
    2ad4:	90 93 0d 01 	sts	0x010D, r25
    2ad8:	80 93 0c 01 	sts	0x010C, r24
    2adc:	04 c0       	rjmp	.+8      	; 0x2ae6 <OLED_menu+0x142>
			if(p>6)
			{
				p=2;
    2ade:	f0 92 0d 01 	sts	0x010D, r15
    2ae2:	e0 92 0c 01 	sts	0x010C, r14
			}
			OLED_goto(p, 0);
    2ae6:	60 e0       	ldi	r22, 0x00	; 0
    2ae8:	88 81       	ld	r24, Y
    2aea:	0e 94 ba 14 	call	0x2974	; 0x2974 <OLED_goto>
			OLED_print_char('z'+5, 8);
    2aee:	68 e0       	ldi	r22, 0x08	; 8
    2af0:	8f e7       	ldi	r24, 0x7F	; 127
    2af2:	0e 94 87 14 	call	0x290e	; 0x290e <OLED_print_char>
    2af6:	2f ef       	ldi	r18, 0xFF	; 255
    2af8:	8f e7       	ldi	r24, 0x7F	; 127
    2afa:	94 e0       	ldi	r25, 0x04	; 4
    2afc:	21 50       	subi	r18, 0x01	; 1
    2afe:	80 40       	sbci	r24, 0x00	; 0
    2b00:	90 40       	sbci	r25, 0x00	; 0
    2b02:	e1 f7       	brne	.-8      	; 0x2afc <OLED_menu+0x158>
    2b04:	00 c0       	rjmp	.+0      	; 0x2b06 <OLED_menu+0x162>
    2b06:	00 00       	nop
	OLED_goto(p, 0);
	OLED_print_char('z'+5, 8);
	
	
	
	while (!read_knappJoy())
    2b08:	0e 94 70 12 	call	0x24e0	; 0x24e0 <read_knappJoy>
    2b0c:	88 23       	and	r24, r24
    2b0e:	09 f4       	brne	.+2      	; 0x2b12 <OLED_menu+0x16e>
    2b10:	92 cf       	rjmp	.-220    	; 0x2a36 <OLED_menu+0x92>
			OLED_goto(p, 0);
			OLED_print_char('z'+5, 8);
			_delay_ms(300);// delay etter vi har trykket ikke nr vi skal trykke
		}
	}
}
    2b12:	df 91       	pop	r29
    2b14:	cf 91       	pop	r28
    2b16:	1f 91       	pop	r17
    2b18:	0f 91       	pop	r16
    2b1a:	ff 90       	pop	r15
    2b1c:	ef 90       	pop	r14
    2b1e:	08 95       	ret

00002b20 <whileplaying>:


void whileplaying(char score){
    2b20:	1f 93       	push	r17
    2b22:	cf 93       	push	r28
    2b24:	df 93       	push	r29
    2b26:	c8 2f       	mov	r28, r24
	if (score != oldscore){ 
    2b28:	48 2f       	mov	r20, r24
    2b2a:	50 e0       	ldi	r21, 0x00	; 0
    2b2c:	20 91 0a 01 	lds	r18, 0x010A
    2b30:	30 91 0b 01 	lds	r19, 0x010B
    2b34:	42 17       	cp	r20, r18
    2b36:	53 07       	cpc	r21, r19
    2b38:	09 f4       	brne	.+2      	; 0x2b3c <whileplaying+0x1c>
    2b3a:	4e c0       	rjmp	.+156    	; 0x2bd8 <whileplaying+0xb8>
		OLED_Home();
    2b3c:	0e 94 5d 14 	call	0x28ba	; 0x28ba <OLED_Home>
		OLED_print("PING-PONG", 8);
    2b40:	68 e0       	ldi	r22, 0x08	; 8
    2b42:	81 e3       	ldi	r24, 0x31	; 49
    2b44:	91 e0       	ldi	r25, 0x01	; 1
    2b46:	0e 94 a5 14 	call	0x294a	; 0x294a <OLED_print>
		OLED_goto(5, 10);
    2b4a:	6a e0       	ldi	r22, 0x0A	; 10
    2b4c:	85 e0       	ldi	r24, 0x05	; 5
    2b4e:	0e 94 ba 14 	call	0x2974	; 0x2974 <OLED_goto>
		OLED_print("Score: ", 8);
    2b52:	68 e0       	ldi	r22, 0x08	; 8
    2b54:	80 e3       	ldi	r24, 0x30	; 48
    2b56:	92 e0       	ldi	r25, 0x02	; 2
    2b58:	0e 94 a5 14 	call	0x294a	; 0x294a <OLED_print>
		int digit = score % 10;
		OLED_goto(5, 78);
    2b5c:	6e e4       	ldi	r22, 0x4E	; 78
    2b5e:	85 e0       	ldi	r24, 0x05	; 5
    2b60:	0e 94 ba 14 	call	0x2974	; 0x2974 <OLED_goto>
	if (score != oldscore){ 
		OLED_Home();
		OLED_print("PING-PONG", 8);
		OLED_goto(5, 10);
		OLED_print("Score: ", 8);
		int digit = score % 10;
    2b64:	1d ec       	ldi	r17, 0xCD	; 205
    2b66:	c1 9f       	mul	r28, r17
    2b68:	d1 2d       	mov	r29, r1
    2b6a:	11 24       	eor	r1, r1
    2b6c:	d6 95       	lsr	r29
    2b6e:	d6 95       	lsr	r29
    2b70:	d6 95       	lsr	r29
    2b72:	8d 2f       	mov	r24, r29
    2b74:	88 0f       	add	r24, r24
    2b76:	98 2f       	mov	r25, r24
    2b78:	99 0f       	add	r25, r25
    2b7a:	99 0f       	add	r25, r25
    2b7c:	89 0f       	add	r24, r25
    2b7e:	c8 1b       	sub	r28, r24
    2b80:	8c 2f       	mov	r24, r28
		OLED_goto(5, 78);
		OLED_print_char('0'+digit, 8);
    2b82:	68 e0       	ldi	r22, 0x08	; 8
    2b84:	80 5d       	subi	r24, 0xD0	; 208
    2b86:	0e 94 87 14 	call	0x290e	; 0x290e <OLED_print_char>
		score /= 10;
		digit = score % 10;
		OLED_goto(5, 70);
    2b8a:	66 e4       	ldi	r22, 0x46	; 70
    2b8c:	85 e0       	ldi	r24, 0x05	; 5
    2b8e:	0e 94 ba 14 	call	0x2974	; 0x2974 <OLED_goto>
		OLED_print("Score: ", 8);
		int digit = score % 10;
		OLED_goto(5, 78);
		OLED_print_char('0'+digit, 8);
		score /= 10;
		digit = score % 10;
    2b92:	d1 9f       	mul	r29, r17
    2b94:	c1 2d       	mov	r28, r1
    2b96:	11 24       	eor	r1, r1
    2b98:	c6 95       	lsr	r28
    2b9a:	c6 95       	lsr	r28
    2b9c:	c6 95       	lsr	r28
    2b9e:	8c 2f       	mov	r24, r28
    2ba0:	88 0f       	add	r24, r24
    2ba2:	98 2f       	mov	r25, r24
    2ba4:	99 0f       	add	r25, r25
    2ba6:	99 0f       	add	r25, r25
    2ba8:	89 0f       	add	r24, r25
    2baa:	d8 1b       	sub	r29, r24
    2bac:	8d 2f       	mov	r24, r29
		OLED_goto(5, 70);
		OLED_print_char('0'+digit, 8);
    2bae:	68 e0       	ldi	r22, 0x08	; 8
    2bb0:	80 5d       	subi	r24, 0xD0	; 208
    2bb2:	0e 94 87 14 	call	0x290e	; 0x290e <OLED_print_char>
		score /= 10;
		digit = score % 10;
		OLED_goto(5, 62);
    2bb6:	6e e3       	ldi	r22, 0x3E	; 62
    2bb8:	85 e0       	ldi	r24, 0x05	; 5
    2bba:	0e 94 ba 14 	call	0x2974	; 0x2974 <OLED_goto>
		OLED_print_char('0'+digit, 8);
    2bbe:	68 e0       	ldi	r22, 0x08	; 8
    2bc0:	80 e3       	ldi	r24, 0x30	; 48
    2bc2:	8c 0f       	add	r24, r28
    2bc4:	0e 94 87 14 	call	0x290e	; 0x290e <OLED_print_char>
		oldscore = score;
    2bc8:	8c 2f       	mov	r24, r28
    2bca:	90 e0       	ldi	r25, 0x00	; 0
    2bcc:	90 93 0b 01 	sts	0x010B, r25
    2bd0:	80 93 0a 01 	sts	0x010A, r24
		Shoot_sfx();				//	Plunger sound effect
    2bd4:	0e 94 69 10 	call	0x20d2	; 0x20d2 <Shoot_sfx>
	}
}
    2bd8:	df 91       	pop	r29
    2bda:	cf 91       	pop	r28
    2bdc:	1f 91       	pop	r17
    2bde:	08 95       	ret

00002be0 <OLED_Game_Over>:

void OLED_Game_Over(char score){
    2be0:	cf 93       	push	r28
    2be2:	c8 2f       	mov	r28, r24
	if (EEPROM_read(0x00) < score){
    2be4:	80 e0       	ldi	r24, 0x00	; 0
    2be6:	90 e0       	ldi	r25, 0x00	; 0
    2be8:	0e 94 0b 12 	call	0x2416	; 0x2416 <EEPROM_read>
    2bec:	8c 17       	cp	r24, r28
    2bee:	b8 f4       	brcc	.+46     	; 0x2c1e <OLED_Game_Over+0x3e>
		write_eeprom(0x00,score);
    2bf0:	6c 2f       	mov	r22, r28
    2bf2:	80 e0       	ldi	r24, 0x00	; 0
    2bf4:	90 e0       	ldi	r25, 0x00	; 0
    2bf6:	0e 94 ff 11 	call	0x23fe	; 0x23fe <write_eeprom>
		write_eeprom(0x01,Name[0]);
    2bfa:	60 91 a9 02 	lds	r22, 0x02A9
    2bfe:	81 e0       	ldi	r24, 0x01	; 1
    2c00:	90 e0       	ldi	r25, 0x00	; 0
    2c02:	0e 94 ff 11 	call	0x23fe	; 0x23fe <write_eeprom>
		write_eeprom(0x02,Name[1]);
    2c06:	60 91 aa 02 	lds	r22, 0x02AA
    2c0a:	82 e0       	ldi	r24, 0x02	; 2
    2c0c:	90 e0       	ldi	r25, 0x00	; 0
    2c0e:	0e 94 ff 11 	call	0x23fe	; 0x23fe <write_eeprom>
		write_eeprom(0x03,Name[2]);
    2c12:	60 91 ab 02 	lds	r22, 0x02AB
    2c16:	83 e0       	ldi	r24, 0x03	; 3
    2c18:	90 e0       	ldi	r25, 0x00	; 0
    2c1a:	0e 94 ff 11 	call	0x23fe	; 0x23fe <write_eeprom>
	}
	write_eeprom(0x10,score);
    2c1e:	6c 2f       	mov	r22, r28
    2c20:	80 e1       	ldi	r24, 0x10	; 16
    2c22:	90 e0       	ldi	r25, 0x00	; 0
    2c24:	0e 94 ff 11 	call	0x23fe	; 0x23fe <write_eeprom>
	OLED_goto(3, 10);
    2c28:	6a e0       	ldi	r22, 0x0A	; 10
    2c2a:	83 e0       	ldi	r24, 0x03	; 3
    2c2c:	0e 94 ba 14 	call	0x2974	; 0x2974 <OLED_goto>
	OLED_print("GAME OVER! :-(",8);
    2c30:	68 e0       	ldi	r22, 0x08	; 8
    2c32:	88 e3       	ldi	r24, 0x38	; 56
    2c34:	92 e0       	ldi	r25, 0x02	; 2
    2c36:	0e 94 a5 14 	call	0x294a	; 0x294a <OLED_print>
    2c3a:	2f ef       	ldi	r18, 0xFF	; 255
    2c3c:	8f ef       	ldi	r24, 0xFF	; 255
    2c3e:	9a e4       	ldi	r25, 0x4A	; 74
    2c40:	21 50       	subi	r18, 0x01	; 1
    2c42:	80 40       	sbci	r24, 0x00	; 0
    2c44:	90 40       	sbci	r25, 0x00	; 0
    2c46:	e1 f7       	brne	.-8      	; 0x2c40 <OLED_Game_Over+0x60>
    2c48:	00 c0       	rjmp	.+0      	; 0x2c4a <OLED_Game_Over+0x6a>
    2c4a:	00 00       	nop
	_delay_ms(5000);
	OLED_Reset();
    2c4c:	0e 94 6f 14 	call	0x28de	; 0x28de <OLED_Reset>
}
    2c50:	cf 91       	pop	r28
    2c52:	08 95       	ret

00002c54 <OLED_highscore>:

void OLED_highscore()
{	
    2c54:	cf 92       	push	r12
    2c56:	df 92       	push	r13
    2c58:	ef 92       	push	r14
    2c5a:	ff 92       	push	r15
    2c5c:	0f 93       	push	r16
    2c5e:	1f 93       	push	r17
    2c60:	cf 93       	push	r28
    2c62:	df 93       	push	r29
	// Prints the 
	char Highscore[5] = {EEPROM_read(0x00),EEPROM_read(0x01),EEPROM_read(0x02),EEPROM_read(0x03),EEPROM_read(0x10)};
    2c64:	80 e0       	ldi	r24, 0x00	; 0
    2c66:	90 e0       	ldi	r25, 0x00	; 0
    2c68:	0e 94 0b 12 	call	0x2416	; 0x2416 <EEPROM_read>
    2c6c:	08 2f       	mov	r16, r24
    2c6e:	81 e0       	ldi	r24, 0x01	; 1
    2c70:	90 e0       	ldi	r25, 0x00	; 0
    2c72:	0e 94 0b 12 	call	0x2416	; 0x2416 <EEPROM_read>
    2c76:	18 2f       	mov	r17, r24
    2c78:	82 e0       	ldi	r24, 0x02	; 2
    2c7a:	90 e0       	ldi	r25, 0x00	; 0
    2c7c:	0e 94 0b 12 	call	0x2416	; 0x2416 <EEPROM_read>
    2c80:	c8 2e       	mov	r12, r24
    2c82:	83 e0       	ldi	r24, 0x03	; 3
    2c84:	90 e0       	ldi	r25, 0x00	; 0
    2c86:	0e 94 0b 12 	call	0x2416	; 0x2416 <EEPROM_read>
    2c8a:	d8 2e       	mov	r13, r24
    2c8c:	80 e1       	ldi	r24, 0x10	; 16
    2c8e:	90 e0       	ldi	r25, 0x00	; 0
    2c90:	0e 94 0b 12 	call	0x2416	; 0x2416 <EEPROM_read>
    2c94:	e8 2e       	mov	r14, r24
	OLED_Reset();
    2c96:	0e 94 6f 14 	call	0x28de	; 0x28de <OLED_Reset>
	OLED_Home();
    2c9a:	0e 94 5d 14 	call	0x28ba	; 0x28ba <OLED_Home>
	OLED_print("HIGHSCORE LIST",8);
    2c9e:	68 e0       	ldi	r22, 0x08	; 8
    2ca0:	87 e4       	ldi	r24, 0x47	; 71
    2ca2:	92 e0       	ldi	r25, 0x02	; 2
    2ca4:	0e 94 a5 14 	call	0x294a	; 0x294a <OLED_print>
	OLED_goto(3, 0);
    2ca8:	60 e0       	ldi	r22, 0x00	; 0
    2caa:	83 e0       	ldi	r24, 0x03	; 3
    2cac:	0e 94 ba 14 	call	0x2974	; 0x2974 <OLED_goto>
	OLED_print("Current:  ", 8);
    2cb0:	68 e0       	ldi	r22, 0x08	; 8
    2cb2:	86 e5       	ldi	r24, 0x56	; 86
    2cb4:	92 e0       	ldi	r25, 0x02	; 2
    2cb6:	0e 94 a5 14 	call	0x294a	; 0x294a <OLED_print>
	OLED_print_char(Name[0], 8);
    2cba:	68 e0       	ldi	r22, 0x08	; 8
    2cbc:	80 91 a9 02 	lds	r24, 0x02A9
    2cc0:	0e 94 87 14 	call	0x290e	; 0x290e <OLED_print_char>
	OLED_print_char(Name[1], 8);
    2cc4:	68 e0       	ldi	r22, 0x08	; 8
    2cc6:	80 91 aa 02 	lds	r24, 0x02AA
    2cca:	0e 94 87 14 	call	0x290e	; 0x290e <OLED_print_char>
	OLED_print_char(Name[2], 8);
    2cce:	68 e0       	ldi	r22, 0x08	; 8
    2cd0:	80 91 ab 02 	lds	r24, 0x02AB
    2cd4:	0e 94 87 14 	call	0x290e	; 0x290e <OLED_print_char>
	OLED_goto(4, 50);
    2cd8:	62 e3       	ldi	r22, 0x32	; 50
    2cda:	84 e0       	ldi	r24, 0x04	; 4
    2cdc:	0e 94 ba 14 	call	0x2974	; 0x2974 <OLED_goto>
	OLED_print("Score:", 0);
    2ce0:	60 e0       	ldi	r22, 0x00	; 0
    2ce2:	81 e6       	ldi	r24, 0x61	; 97
    2ce4:	92 e0       	ldi	r25, 0x02	; 2
    2ce6:	0e 94 a5 14 	call	0x294a	; 0x294a <OLED_print>
	int score = Highscore[4];
    2cea:	f1 2c       	mov	r15, r1
	int digit = score % 10;
	OLED_goto(4, 78);
    2cec:	6e e4       	ldi	r22, 0x4E	; 78
    2cee:	84 e0       	ldi	r24, 0x04	; 4
    2cf0:	0e 94 ba 14 	call	0x2974	; 0x2974 <OLED_goto>
	OLED_print_char(Name[1], 8);
	OLED_print_char(Name[2], 8);
	OLED_goto(4, 50);
	OLED_print("Score:", 0);
	int score = Highscore[4];
	int digit = score % 10;
    2cf4:	ca e0       	ldi	r28, 0x0A	; 10
    2cf6:	d0 e0       	ldi	r29, 0x00	; 0
    2cf8:	c7 01       	movw	r24, r14
    2cfa:	be 01       	movw	r22, r28
    2cfc:	0e 94 f0 18 	call	0x31e0	; 0x31e0 <__divmodhi4>
    2d00:	7b 01       	movw	r14, r22
	OLED_goto(4, 78);
	OLED_print_char('0'+digit, 8);
    2d02:	68 e0       	ldi	r22, 0x08	; 8
    2d04:	80 5d       	subi	r24, 0xD0	; 208
    2d06:	0e 94 87 14 	call	0x290e	; 0x290e <OLED_print_char>
	score /= 10;
	digit = score % 10;
	OLED_goto(4, 70);
    2d0a:	66 e4       	ldi	r22, 0x46	; 70
    2d0c:	84 e0       	ldi	r24, 0x04	; 4
    2d0e:	0e 94 ba 14 	call	0x2974	; 0x2974 <OLED_goto>
	int score = Highscore[4];
	int digit = score % 10;
	OLED_goto(4, 78);
	OLED_print_char('0'+digit, 8);
	score /= 10;
	digit = score % 10;
    2d12:	c7 01       	movw	r24, r14
    2d14:	be 01       	movw	r22, r28
    2d16:	0e 94 f0 18 	call	0x31e0	; 0x31e0 <__divmodhi4>
    2d1a:	7b 01       	movw	r14, r22
	OLED_goto(4, 70);
	OLED_print_char('0'+digit, 8);
    2d1c:	68 e0       	ldi	r22, 0x08	; 8
    2d1e:	80 5d       	subi	r24, 0xD0	; 208
    2d20:	0e 94 87 14 	call	0x290e	; 0x290e <OLED_print_char>
	score /= 10;
	digit = score % 10;
	OLED_goto(4, 62);
    2d24:	6e e3       	ldi	r22, 0x3E	; 62
    2d26:	84 e0       	ldi	r24, 0x04	; 4
    2d28:	0e 94 ba 14 	call	0x2974	; 0x2974 <OLED_goto>
	score /= 10;
	digit = score % 10;
	OLED_goto(4, 70);
	OLED_print_char('0'+digit, 8);
	score /= 10;
	digit = score % 10;
    2d2c:	c7 01       	movw	r24, r14
    2d2e:	be 01       	movw	r22, r28
    2d30:	0e 94 f0 18 	call	0x31e0	; 0x31e0 <__divmodhi4>
	OLED_goto(4, 62);
	OLED_print_char('0'+digit, 8);
    2d34:	68 e0       	ldi	r22, 0x08	; 8
    2d36:	80 5d       	subi	r24, 0xD0	; 208
    2d38:	0e 94 87 14 	call	0x290e	; 0x290e <OLED_print_char>
	
	OLED_goto(6, 0);
    2d3c:	60 e0       	ldi	r22, 0x00	; 0
    2d3e:	86 e0       	ldi	r24, 0x06	; 6
    2d40:	0e 94 ba 14 	call	0x2974	; 0x2974 <OLED_goto>
	OLED_print("All time: ", 8);
    2d44:	68 e0       	ldi	r22, 0x08	; 8
    2d46:	88 e6       	ldi	r24, 0x68	; 104
    2d48:	92 e0       	ldi	r25, 0x02	; 2
    2d4a:	0e 94 a5 14 	call	0x294a	; 0x294a <OLED_print>
	printf("HS: %c", Highscore[1]);
    2d4e:	1f 92       	push	r1
    2d50:	1f 93       	push	r17
    2d52:	23 e7       	ldi	r18, 0x73	; 115
    2d54:	32 e0       	ldi	r19, 0x02	; 2
    2d56:	3f 93       	push	r19
    2d58:	2f 93       	push	r18
    2d5a:	0e 94 ed 1a 	call	0x35da	; 0x35da <printf>
	OLED_print_char(Highscore[1], 8);
    2d5e:	68 e0       	ldi	r22, 0x08	; 8
    2d60:	81 2f       	mov	r24, r17
    2d62:	0e 94 87 14 	call	0x290e	; 0x290e <OLED_print_char>
	OLED_print_char(Highscore[2], 8);
    2d66:	68 e0       	ldi	r22, 0x08	; 8
    2d68:	8c 2d       	mov	r24, r12
    2d6a:	0e 94 87 14 	call	0x290e	; 0x290e <OLED_print_char>
	OLED_print_char(Highscore[3], 8);
    2d6e:	68 e0       	ldi	r22, 0x08	; 8
    2d70:	8d 2d       	mov	r24, r13
    2d72:	0e 94 87 14 	call	0x290e	; 0x290e <OLED_print_char>
	OLED_goto(7, 50);
    2d76:	62 e3       	ldi	r22, 0x32	; 50
    2d78:	87 e0       	ldi	r24, 0x07	; 7
    2d7a:	0e 94 ba 14 	call	0x2974	; 0x2974 <OLED_goto>
	OLED_print("Score:", 0);
    2d7e:	60 e0       	ldi	r22, 0x00	; 0
    2d80:	81 e6       	ldi	r24, 0x61	; 97
    2d82:	92 e0       	ldi	r25, 0x02	; 2
    2d84:	0e 94 a5 14 	call	0x294a	; 0x294a <OLED_print>
	score = Highscore[0];
    2d88:	10 e0       	ldi	r17, 0x00	; 0
	digit = score % 10;
	OLED_goto(7, 78);
    2d8a:	6e e4       	ldi	r22, 0x4E	; 78
    2d8c:	87 e0       	ldi	r24, 0x07	; 7
    2d8e:	0e 94 ba 14 	call	0x2974	; 0x2974 <OLED_goto>
	OLED_print_char(Highscore[2], 8);
	OLED_print_char(Highscore[3], 8);
	OLED_goto(7, 50);
	OLED_print("Score:", 0);
	score = Highscore[0];
	digit = score % 10;
    2d92:	c8 01       	movw	r24, r16
    2d94:	be 01       	movw	r22, r28
    2d96:	0e 94 f0 18 	call	0x31e0	; 0x31e0 <__divmodhi4>
    2d9a:	8b 01       	movw	r16, r22
	OLED_goto(7, 78);
	OLED_print_char('0'+digit, 8);
    2d9c:	68 e0       	ldi	r22, 0x08	; 8
    2d9e:	80 5d       	subi	r24, 0xD0	; 208
    2da0:	0e 94 87 14 	call	0x290e	; 0x290e <OLED_print_char>
	score /= 10;
	digit = score % 10;
	OLED_goto(7, 70);
    2da4:	66 e4       	ldi	r22, 0x46	; 70
    2da6:	87 e0       	ldi	r24, 0x07	; 7
    2da8:	0e 94 ba 14 	call	0x2974	; 0x2974 <OLED_goto>
	score = Highscore[0];
	digit = score % 10;
	OLED_goto(7, 78);
	OLED_print_char('0'+digit, 8);
	score /= 10;
	digit = score % 10;
    2dac:	c8 01       	movw	r24, r16
    2dae:	be 01       	movw	r22, r28
    2db0:	0e 94 f0 18 	call	0x31e0	; 0x31e0 <__divmodhi4>
    2db4:	8b 01       	movw	r16, r22
	OLED_goto(7, 70);
	OLED_print_char('0'+digit, 8);
    2db6:	68 e0       	ldi	r22, 0x08	; 8
    2db8:	80 5d       	subi	r24, 0xD0	; 208
    2dba:	0e 94 87 14 	call	0x290e	; 0x290e <OLED_print_char>
	score /= 10;
	digit = score % 10;
	OLED_goto(7, 62);
    2dbe:	6e e3       	ldi	r22, 0x3E	; 62
    2dc0:	87 e0       	ldi	r24, 0x07	; 7
    2dc2:	0e 94 ba 14 	call	0x2974	; 0x2974 <OLED_goto>
	score /= 10;
	digit = score % 10;
	OLED_goto(7, 70);
	OLED_print_char('0'+digit, 8);
	score /= 10;
	digit = score % 10;
    2dc6:	c8 01       	movw	r24, r16
    2dc8:	be 01       	movw	r22, r28
    2dca:	0e 94 f0 18 	call	0x31e0	; 0x31e0 <__divmodhi4>
	OLED_goto(7, 62);
	OLED_print_char('0'+digit, 8);
    2dce:	68 e0       	ldi	r22, 0x08	; 8
    2dd0:	80 5d       	subi	r24, 0xD0	; 208
    2dd2:	0e 94 87 14 	call	0x290e	; 0x290e <OLED_print_char>
    2dd6:	2f ef       	ldi	r18, 0xFF	; 255
    2dd8:	8f e7       	ldi	r24, 0x7F	; 127
    2dda:	97 e0       	ldi	r25, 0x07	; 7
    2ddc:	21 50       	subi	r18, 0x01	; 1
    2dde:	80 40       	sbci	r24, 0x00	; 0
    2de0:	90 40       	sbci	r25, 0x00	; 0
    2de2:	e1 f7       	brne	.-8      	; 0x2ddc <OLED_highscore+0x188>
    2de4:	00 c0       	rjmp	.+0      	; 0x2de6 <OLED_highscore+0x192>
    2de6:	00 00       	nop
    2de8:	0f 90       	pop	r0
    2dea:	0f 90       	pop	r0
    2dec:	0f 90       	pop	r0
    2dee:	0f 90       	pop	r0
    2df0:	1b c0       	rjmp	.+54     	; 0x2e28 <OLED_highscore+0x1d4>
	_delay_ms(500);
	while (!read_knappJoy()){	
		if (read_knappLeft() & read_knappRight()){
    2df2:	0e 94 5a 13 	call	0x26b4	; 0x26b4 <read_knappLeft>
    2df6:	c8 2f       	mov	r28, r24
    2df8:	0e 94 5e 13 	call	0x26bc	; 0x26bc <read_knappRight>
    2dfc:	8c 23       	and	r24, r28
    2dfe:	a1 f0       	breq	.+40     	; 0x2e28 <OLED_highscore+0x1d4>
			write_eeprom(0x00,0x00);
    2e00:	60 e0       	ldi	r22, 0x00	; 0
    2e02:	80 e0       	ldi	r24, 0x00	; 0
    2e04:	90 e0       	ldi	r25, 0x00	; 0
    2e06:	0e 94 ff 11 	call	0x23fe	; 0x23fe <write_eeprom>
			write_eeprom(0x01,0x00);
    2e0a:	60 e0       	ldi	r22, 0x00	; 0
    2e0c:	81 e0       	ldi	r24, 0x01	; 1
    2e0e:	90 e0       	ldi	r25, 0x00	; 0
    2e10:	0e 94 ff 11 	call	0x23fe	; 0x23fe <write_eeprom>
			write_eeprom(0x02,0x00);
    2e14:	60 e0       	ldi	r22, 0x00	; 0
    2e16:	82 e0       	ldi	r24, 0x02	; 2
    2e18:	90 e0       	ldi	r25, 0x00	; 0
    2e1a:	0e 94 ff 11 	call	0x23fe	; 0x23fe <write_eeprom>
			write_eeprom(0x03,0x00);
    2e1e:	60 e0       	ldi	r22, 0x00	; 0
    2e20:	83 e0       	ldi	r24, 0x03	; 3
    2e22:	90 e0       	ldi	r25, 0x00	; 0
    2e24:	0e 94 ff 11 	call	0x23fe	; 0x23fe <write_eeprom>
	score /= 10;
	digit = score % 10;
	OLED_goto(7, 62);
	OLED_print_char('0'+digit, 8);
	_delay_ms(500);
	while (!read_knappJoy()){	
    2e28:	0e 94 70 12 	call	0x24e0	; 0x24e0 <read_knappJoy>
    2e2c:	88 23       	and	r24, r24
    2e2e:	09 f3       	breq	.-62     	; 0x2df2 <OLED_highscore+0x19e>
			write_eeprom(0x02,0x00);
			write_eeprom(0x03,0x00);
		}
			
	}
}
    2e30:	df 91       	pop	r29
    2e32:	cf 91       	pop	r28
    2e34:	1f 91       	pop	r17
    2e36:	0f 91       	pop	r16
    2e38:	ff 90       	pop	r15
    2e3a:	ef 90       	pop	r14
    2e3c:	df 90       	pop	r13
    2e3e:	cf 90       	pop	r12
    2e40:	08 95       	ret

00002e42 <OLED_NameScreen>:

void OLED_NameScreen()
{
    2e42:	df 92       	push	r13
    2e44:	ef 92       	push	r14
    2e46:	ff 92       	push	r15
    2e48:	0f 93       	push	r16
    2e4a:	1f 93       	push	r17
    2e4c:	cf 93       	push	r28
    2e4e:	df 93       	push	r29
		OLED_Reset();
    2e50:	0e 94 6f 14 	call	0x28de	; 0x28de <OLED_Reset>
		char bokstav = '@';
		OLED_Home();
    2e54:	0e 94 5d 14 	call	0x28ba	; 0x28ba <OLED_Home>
		OLED_print("CHOOSE USERNAME", 8);
    2e58:	68 e0       	ldi	r22, 0x08	; 8
    2e5a:	8a e7       	ldi	r24, 0x7A	; 122
    2e5c:	92 e0       	ldi	r25, 0x02	; 2
    2e5e:	0e 94 a5 14 	call	0x294a	; 0x294a <OLED_print>
		OLED_goto(4, 0);
    2e62:	60 e0       	ldi	r22, 0x00	; 0
    2e64:	84 e0       	ldi	r24, 0x04	; 4
    2e66:	0e 94 ba 14 	call	0x2974	; 0x2974 <OLED_goto>
		OLED_print("Name:", 8);
    2e6a:	68 e0       	ldi	r22, 0x08	; 8
    2e6c:	8a e8       	ldi	r24, 0x8A	; 138
    2e6e:	92 e0       	ldi	r25, 0x02	; 2
    2e70:	0e 94 a5 14 	call	0x294a	; 0x294a <OLED_print>
		int minne = 0;
		//* Name;
		OLED_goto(4, 40);
    2e74:	68 e2       	ldi	r22, 0x28	; 40
    2e76:	84 e0       	ldi	r24, 0x04	; 4
    2e78:	0e 94 ba 14 	call	0x2974	; 0x2974 <OLED_goto>
		int p = 40;
    2e7c:	08 e2       	ldi	r16, 0x28	; 40
    2e7e:	10 e0       	ldi	r17, 0x00	; 0
		char bokstav = '@';
		OLED_Home();
		OLED_print("CHOOSE USERNAME", 8);
		OLED_goto(4, 0);
		OLED_print("Name:", 8);
		int minne = 0;
    2e80:	c0 e0       	ldi	r28, 0x00	; 0
    2e82:	d0 e0       	ldi	r29, 0x00	; 0
}

void OLED_NameScreen()
{
		OLED_Reset();
		char bokstav = '@';
    2e84:	68 94       	set
    2e86:	ee 24       	eor	r14, r14
    2e88:	e6 f8       	bld	r14, 6
			Name[minne] = bokstav;
			minne++;
			p = p+8;
			_delay_ms(500);
		}
		if ((read_knappRight() == 1) & (minne == 1))
    2e8a:	ff 24       	eor	r15, r15
    2e8c:	f3 94       	inc	r15
    2e8e:	d1 2c       	mov	r13, r1
		OLED_goto(4, 40);
		int p = 40;
		while (minne <=2)
		{
			
		if (read_y() > 50)
    2e90:	0e 94 6c 12 	call	0x24d8	; 0x24d8 <read_y>
    2e94:	83 33       	cpi	r24, 0x33	; 51
    2e96:	cc f0       	brlt	.+50     	; 0x2eca <OLED_NameScreen+0x88>
		{
			buzz(100,5);
    2e98:	65 e0       	ldi	r22, 0x05	; 5
    2e9a:	70 e0       	ldi	r23, 0x00	; 0
    2e9c:	84 e6       	ldi	r24, 0x64	; 100
    2e9e:	90 e0       	ldi	r25, 0x00	; 0
    2ea0:	0e 94 19 10 	call	0x2032	; 0x2032 <buzz>
			OLED_goto(4, p);
    2ea4:	60 2f       	mov	r22, r16
    2ea6:	84 e0       	ldi	r24, 0x04	; 4
    2ea8:	0e 94 ba 14 	call	0x2974	; 0x2974 <OLED_goto>
			bokstav++;
    2eac:	e3 94       	inc	r14
			OLED_print_char(bokstav, 8);
    2eae:	68 e0       	ldi	r22, 0x08	; 8
    2eb0:	8e 2d       	mov	r24, r14
    2eb2:	0e 94 87 14 	call	0x290e	; 0x290e <OLED_print_char>
    2eb6:	2f ef       	ldi	r18, 0xFF	; 255
    2eb8:	8f eb       	ldi	r24, 0xBF	; 191
    2eba:	93 e0       	ldi	r25, 0x03	; 3
    2ebc:	21 50       	subi	r18, 0x01	; 1
    2ebe:	80 40       	sbci	r24, 0x00	; 0
    2ec0:	90 40       	sbci	r25, 0x00	; 0
    2ec2:	e1 f7       	brne	.-8      	; 0x2ebc <OLED_NameScreen+0x7a>
    2ec4:	00 c0       	rjmp	.+0      	; 0x2ec6 <OLED_NameScreen+0x84>
    2ec6:	00 00       	nop
    2ec8:	1c c0       	rjmp	.+56     	; 0x2f02 <OLED_NameScreen+0xc0>
			_delay_ms(250);
		}
		else if (read_y() < -50)
    2eca:	0e 94 6c 12 	call	0x24d8	; 0x24d8 <read_y>
    2ece:	8e 3c       	cpi	r24, 0xCE	; 206
    2ed0:	c4 f4       	brge	.+48     	; 0x2f02 <OLED_NameScreen+0xc0>
		{
			buzz(100,5);
    2ed2:	65 e0       	ldi	r22, 0x05	; 5
    2ed4:	70 e0       	ldi	r23, 0x00	; 0
    2ed6:	84 e6       	ldi	r24, 0x64	; 100
    2ed8:	90 e0       	ldi	r25, 0x00	; 0
    2eda:	0e 94 19 10 	call	0x2032	; 0x2032 <buzz>
			OLED_goto(4, p);
    2ede:	60 2f       	mov	r22, r16
    2ee0:	84 e0       	ldi	r24, 0x04	; 4
    2ee2:	0e 94 ba 14 	call	0x2974	; 0x2974 <OLED_goto>
			bokstav--;
    2ee6:	ea 94       	dec	r14
			OLED_print_char(bokstav, 8);
    2ee8:	68 e0       	ldi	r22, 0x08	; 8
    2eea:	8e 2d       	mov	r24, r14
    2eec:	0e 94 87 14 	call	0x290e	; 0x290e <OLED_print_char>
    2ef0:	2f ef       	ldi	r18, 0xFF	; 255
    2ef2:	8f eb       	ldi	r24, 0xBF	; 191
    2ef4:	93 e0       	ldi	r25, 0x03	; 3
    2ef6:	21 50       	subi	r18, 0x01	; 1
    2ef8:	80 40       	sbci	r24, 0x00	; 0
    2efa:	90 40       	sbci	r25, 0x00	; 0
    2efc:	e1 f7       	brne	.-8      	; 0x2ef6 <OLED_NameScreen+0xb4>
    2efe:	00 c0       	rjmp	.+0      	; 0x2f00 <OLED_NameScreen+0xbe>
    2f00:	00 00       	nop
			_delay_ms(250);
		}
		
		if (read_knappRight() == 1)
    2f02:	0e 94 5e 13 	call	0x26bc	; 0x26bc <read_knappRight>
    2f06:	81 30       	cpi	r24, 0x01	; 1
    2f08:	81 f4       	brne	.+32     	; 0x2f2a <OLED_NameScreen+0xe8>
		{
			Name[minne] = bokstav;
    2f0a:	fe 01       	movw	r30, r28
    2f0c:	e7 55       	subi	r30, 0x57	; 87
    2f0e:	fd 4f       	sbci	r31, 0xFD	; 253
    2f10:	e0 82       	st	Z, r14
			minne++;
    2f12:	21 96       	adiw	r28, 0x01	; 1
			p = p+8;
    2f14:	08 5f       	subi	r16, 0xF8	; 248
    2f16:	1f 4f       	sbci	r17, 0xFF	; 255
    2f18:	2f ef       	ldi	r18, 0xFF	; 255
    2f1a:	8f e7       	ldi	r24, 0x7F	; 127
    2f1c:	97 e0       	ldi	r25, 0x07	; 7
    2f1e:	21 50       	subi	r18, 0x01	; 1
    2f20:	80 40       	sbci	r24, 0x00	; 0
    2f22:	90 40       	sbci	r25, 0x00	; 0
    2f24:	e1 f7       	brne	.-8      	; 0x2f1e <OLED_NameScreen+0xdc>
    2f26:	00 c0       	rjmp	.+0      	; 0x2f28 <OLED_NameScreen+0xe6>
    2f28:	00 00       	nop
			_delay_ms(500);
		}
		if ((read_knappRight() == 1) & (minne == 1))
    2f2a:	0e 94 5e 13 	call	0x26bc	; 0x26bc <read_knappRight>
    2f2e:	9f 2d       	mov	r25, r15
    2f30:	c1 30       	cpi	r28, 0x01	; 1
    2f32:	d1 05       	cpc	r29, r1
    2f34:	09 f0       	breq	.+2      	; 0x2f38 <OLED_NameScreen+0xf6>
    2f36:	9d 2d       	mov	r25, r13
    2f38:	99 23       	and	r25, r25
    2f3a:	51 f0       	breq	.+20     	; 0x2f50 <OLED_NameScreen+0x10e>
    2f3c:	9f 2d       	mov	r25, r15
    2f3e:	81 30       	cpi	r24, 0x01	; 1
    2f40:	09 f0       	breq	.+2      	; 0x2f44 <OLED_NameScreen+0x102>
    2f42:	9d 2d       	mov	r25, r13
    2f44:	99 23       	and	r25, r25
    2f46:	21 f0       	breq	.+8      	; 0x2f50 <OLED_NameScreen+0x10e>
		{
			OLED_goto(4, p);
    2f48:	60 2f       	mov	r22, r16
    2f4a:	84 e0       	ldi	r24, 0x04	; 4
    2f4c:	0e 94 ba 14 	call	0x2974	; 0x2974 <OLED_goto>
		}
		if ((read_knappRight() == 1) & ( minne == 2))
    2f50:	0e 94 5e 13 	call	0x26bc	; 0x26bc <read_knappRight>
    2f54:	9f 2d       	mov	r25, r15
    2f56:	81 30       	cpi	r24, 0x01	; 1
    2f58:	09 f0       	breq	.+2      	; 0x2f5c <OLED_NameScreen+0x11a>
    2f5a:	9d 2d       	mov	r25, r13
    2f5c:	99 23       	and	r25, r25
    2f5e:	59 f0       	breq	.+22     	; 0x2f76 <OLED_NameScreen+0x134>
    2f60:	8f 2d       	mov	r24, r15
    2f62:	c2 30       	cpi	r28, 0x02	; 2
    2f64:	d1 05       	cpc	r29, r1
    2f66:	09 f0       	breq	.+2      	; 0x2f6a <OLED_NameScreen+0x128>
    2f68:	8d 2d       	mov	r24, r13
    2f6a:	88 23       	and	r24, r24
    2f6c:	21 f0       	breq	.+8      	; 0x2f76 <OLED_NameScreen+0x134>
		{
			OLED_goto(4, p);
    2f6e:	60 2f       	mov	r22, r16
    2f70:	84 e0       	ldi	r24, 0x04	; 4
    2f72:	0e 94 ba 14 	call	0x2974	; 0x2974 <OLED_goto>
		OLED_print("Name:", 8);
		int minne = 0;
		//* Name;
		OLED_goto(4, 40);
		int p = 40;
		while (minne <=2)
    2f76:	c3 30       	cpi	r28, 0x03	; 3
    2f78:	d1 05       	cpc	r29, r1
    2f7a:	0c f4       	brge	.+2      	; 0x2f7e <OLED_NameScreen+0x13c>
    2f7c:	89 cf       	rjmp	.-238    	; 0x2e90 <OLED_NameScreen+0x4e>
		{
			OLED_goto(4, p);

		}
	}
}
    2f7e:	df 91       	pop	r29
    2f80:	cf 91       	pop	r28
    2f82:	1f 91       	pop	r17
    2f84:	0f 91       	pop	r16
    2f86:	ff 90       	pop	r15
    2f88:	ef 90       	pop	r14
    2f8a:	df 90       	pop	r13
    2f8c:	08 95       	ret

00002f8e <OLED_animation>:

void OLED_animation(){
    2f8e:	6f 92       	push	r6
    2f90:	7f 92       	push	r7
    2f92:	8f 92       	push	r8
    2f94:	9f 92       	push	r9
    2f96:	af 92       	push	r10
    2f98:	bf 92       	push	r11
    2f9a:	cf 92       	push	r12
    2f9c:	df 92       	push	r13
    2f9e:	ef 92       	push	r14
    2fa0:	ff 92       	push	r15
    2fa2:	0f 93       	push	r16
    2fa4:	1f 93       	push	r17
    2fa6:	cf 93       	push	r28
    2fa8:	df 93       	push	r29
	OLED_Home();
    2faa:	0e 94 5d 14 	call	0x28ba	; 0x28ba <OLED_Home>
	*write_c = 0x20;
    2fae:	e0 91 08 01 	lds	r30, 0x0108
    2fb2:	f0 91 09 01 	lds	r31, 0x0109
    2fb6:	80 e2       	ldi	r24, 0x20	; 32
    2fb8:	80 83       	st	Z, r24
	*write_c = 0b0001;
    2fba:	e0 91 08 01 	lds	r30, 0x0108
    2fbe:	f0 91 09 01 	lds	r31, 0x0109
    2fc2:	81 e0       	ldi	r24, 0x01	; 1
    2fc4:	80 83       	st	Z, r24
    2fc6:	0f 2e       	mov	r0, r31
    2fc8:	fa e0       	ldi	r31, 0x0A	; 10
    2fca:	af 2e       	mov	r10, r31
    2fcc:	b1 2c       	mov	r11, r1
    2fce:	f0 2d       	mov	r31, r0

		}
	}
}

void OLED_animation(){
    2fd0:	61 2c       	mov	r6, r1
    2fd2:	71 2c       	mov	r7, r1
	*write_c = 0x20;
	*write_c = 0b0001;
	for(int k=0;k<10;k++){
		for(int j=0; j<7; j++){
			_delay_ms(100);
			for (int i = 0 ; i<8*128 ; i++)
    2fd4:	86 2c       	mov	r8, r6
    2fd6:	97 2c       	mov	r9, r7
    2fd8:	40 c0       	rjmp	.+128    	; 0x305a <OLED_animation+0xcc>
    2fda:	2f ef       	ldi	r18, 0xFF	; 255
    2fdc:	8f e7       	ldi	r24, 0x7F	; 127
    2fde:	91 e0       	ldi	r25, 0x01	; 1
    2fe0:	21 50       	subi	r18, 0x01	; 1
    2fe2:	80 40       	sbci	r24, 0x00	; 0
    2fe4:	90 40       	sbci	r25, 0x00	; 0
    2fe6:	e1 f7       	brne	.-8      	; 0x2fe0 <OLED_animation+0x52>
    2fe8:	00 c0       	rjmp	.+0      	; 0x2fea <OLED_animation+0x5c>
    2fea:	00 c0       	rjmp	.+0      	; 0x2fec <OLED_animation+0x5e>
    2fec:	c8 2d       	mov	r28, r8
    2fee:	d9 2d       	mov	r29, r9
    2ff0:	c6 01       	movw	r24, r12
    2ff2:	80 59       	subi	r24, 0x90	; 144
    2ff4:	9f 4f       	sbci	r25, 0xFF	; 255
    2ff6:	7c 01       	movw	r14, r24
    2ff8:	f7 01       	movw	r30, r14
    2ffa:	ec 0f       	add	r30, r28
    2ffc:	fd 1f       	adc	r31, r29
			{
				char a = pgm_read_byte(&Hallo[j][i]); // better than write_d(font8[c-' '][i]);
    2ffe:	84 91       	lpm	r24, Z
				
				// Inverting the bytes
				a = ((a>>1) & 0x55) | ((a<<1) & 0xaa);
    3000:	e8 2f       	mov	r30, r24
    3002:	ee 0f       	add	r30, r30
    3004:	ea 7a       	andi	r30, 0xAA	; 170
    3006:	86 95       	lsr	r24
    3008:	85 75       	andi	r24, 0x55	; 85
    300a:	e8 2b       	or	r30, r24
				a = ((a>>2) & 0x33) | ((a<<2) & 0xcc);
    300c:	6e 2f       	mov	r22, r30
    300e:	66 0f       	add	r22, r22
    3010:	66 0f       	add	r22, r22
    3012:	6c 7c       	andi	r22, 0xCC	; 204
    3014:	e6 95       	lsr	r30
    3016:	e6 95       	lsr	r30
    3018:	e3 73       	andi	r30, 0x33	; 51
    301a:	6e 2b       	or	r22, r30
				a = ((a>>4) & 0x0f) | ((a<<4) & 0xf0);
    301c:	62 95       	swap	r22
				// Inverting the bytes
				*write_d = a;
    301e:	e0 91 06 01 	lds	r30, 0x0106
    3022:	f0 91 07 01 	lds	r31, 0x0107
    3026:	60 83       	st	Z, r22
				//if (j < 2){
					SRAM_write(i+(j*128),a);
    3028:	70 e0       	ldi	r23, 0x00	; 0
    302a:	c8 01       	movw	r24, r16
    302c:	8c 0f       	add	r24, r28
    302e:	9d 1f       	adc	r25, r29
    3030:	0e 94 cf 18 	call	0x319e	; 0x319e <SRAM_write>
	*write_c = 0x20;
	*write_c = 0b0001;
	for(int k=0;k<10;k++){
		for(int j=0; j<7; j++){
			_delay_ms(100);
			for (int i = 0 ; i<8*128 ; i++)
    3034:	21 96       	adiw	r28, 0x01	; 1
    3036:	c1 15       	cp	r28, r1
    3038:	94 e0       	ldi	r25, 0x04	; 4
    303a:	d9 07       	cpc	r29, r25
    303c:	e9 f6       	brne	.-70     	; 0x2ff8 <OLED_animation+0x6a>
    303e:	ec ef       	ldi	r30, 0xFC	; 252
    3040:	de 1a       	sub	r13, r30
    3042:	00 58       	subi	r16, 0x80	; 128
    3044:	1f 4f       	sbci	r17, 0xFF	; 255
void OLED_animation(){
	OLED_Home();
	*write_c = 0x20;
	*write_c = 0b0001;
	for(int k=0;k<10;k++){
		for(int j=0; j<7; j++){
    3046:	00 38       	cpi	r16, 0x80	; 128
    3048:	f3 e0       	ldi	r31, 0x03	; 3
    304a:	1f 07       	cpc	r17, r31
    304c:	31 f6       	brne	.-116    	; 0x2fda <OLED_animation+0x4c>
    304e:	21 e0       	ldi	r18, 0x01	; 1
    3050:	a2 1a       	sub	r10, r18
    3052:	b1 08       	sbc	r11, r1

void OLED_animation(){
	OLED_Home();
	*write_c = 0x20;
	*write_c = 0b0001;
	for(int k=0;k<10;k++){
    3054:	a1 14       	cp	r10, r1
    3056:	b1 04       	cpc	r11, r1
    3058:	29 f0       	breq	.+10     	; 0x3064 <OLED_animation+0xd6>

		}
	}
}

void OLED_animation(){
    305a:	06 2d       	mov	r16, r6
    305c:	17 2d       	mov	r17, r7
    305e:	c6 2c       	mov	r12, r6
    3060:	d7 2c       	mov	r13, r7
    3062:	bb cf       	rjmp	.-138    	; 0x2fda <OLED_animation+0x4c>
					SRAM_write(i+(j*128),a);
				//}
			}
		}
	}
	*write_c = 0x20;
    3064:	e0 91 08 01 	lds	r30, 0x0108
    3068:	f0 91 09 01 	lds	r31, 0x0109
    306c:	80 e2       	ldi	r24, 0x20	; 32
    306e:	80 83       	st	Z, r24
	*write_c = 0b0010;
    3070:	e0 91 08 01 	lds	r30, 0x0108
    3074:	f0 91 09 01 	lds	r31, 0x0109
    3078:	82 e0       	ldi	r24, 0x02	; 2
    307a:	80 83       	st	Z, r24
	
	OLED_Reset();
    307c:	0e 94 6f 14 	call	0x28de	; 0x28de <OLED_Reset>
	OLED_Home();
    3080:	0e 94 5d 14 	call	0x28ba	; 0x28ba <OLED_Home>
	OLED_print("NA KOMMER", 8);
    3084:	68 e0       	ldi	r22, 0x08	; 8
    3086:	80 e9       	ldi	r24, 0x90	; 144
    3088:	92 e0       	ldi	r25, 0x02	; 2
    308a:	0e 94 a5 14 	call	0x294a	; 0x294a <OLED_print>
	OLED_goto(3,0);
    308e:	60 e0       	ldi	r22, 0x00	; 0
    3090:	83 e0       	ldi	r24, 0x03	; 3
    3092:	0e 94 ba 14 	call	0x2974	; 0x2974 <OLED_goto>
	OLED_print("SRAM DATA!", 8);
    3096:	68 e0       	ldi	r22, 0x08	; 8
    3098:	8a e9       	ldi	r24, 0x9A	; 154
    309a:	92 e0       	ldi	r25, 0x02	; 2
    309c:	0e 94 a5 14 	call	0x294a	; 0x294a <OLED_print>
    30a0:	8f ef       	ldi	r24, 0xFF	; 255
    30a2:	9f ef       	ldi	r25, 0xFF	; 255
    30a4:	ee e0       	ldi	r30, 0x0E	; 14
    30a6:	81 50       	subi	r24, 0x01	; 1
    30a8:	90 40       	sbci	r25, 0x00	; 0
    30aa:	e0 40       	sbci	r30, 0x00	; 0
    30ac:	e1 f7       	brne	.-8      	; 0x30a6 <OLED_animation+0x118>
    30ae:	00 c0       	rjmp	.+0      	; 0x30b0 <OLED_animation+0x122>
    30b0:	00 00       	nop
	_delay_ms(1000);
	OLED_Home();
    30b2:	0e 94 5d 14 	call	0x28ba	; 0x28ba <OLED_Home>
	*write_c = 0x20;
    30b6:	e0 91 08 01 	lds	r30, 0x0108
    30ba:	f0 91 09 01 	lds	r31, 0x0109
    30be:	80 e2       	ldi	r24, 0x20	; 32
    30c0:	80 83       	st	Z, r24
	*write_c = 0b0001;
    30c2:	e0 91 08 01 	lds	r30, 0x0108
    30c6:	f0 91 09 01 	lds	r31, 0x0109
    30ca:	81 e0       	ldi	r24, 0x01	; 1
    30cc:	80 83       	st	Z, r24
    30ce:	0f 2e       	mov	r0, r31
    30d0:	fa e0       	ldi	r31, 0x0A	; 10
    30d2:	cf 2e       	mov	r12, r31
    30d4:	d1 2c       	mov	r13, r1
    30d6:	f0 2d       	mov	r31, r0
}

void OLED_animation(){
	OLED_Home();
	*write_c = 0x20;
	*write_c = 0b0001;
    30d8:	81 2c       	mov	r8, r1
    30da:	91 2c       	mov	r9, r1
	*write_c = 0b0001;
	
	for(int k=0;k<10;k++){
		for(int j=0; j<7; j++){
			_delay_ms(100);
			for (int i = 0 ; i<8*128 ; i++)
    30dc:	a8 2c       	mov	r10, r8
    30de:	b9 2c       	mov	r11, r9
    30e0:	29 c0       	rjmp	.+82     	; 0x3134 <OLED_animation+0x1a6>
    30e2:	ff ef       	ldi	r31, 0xFF	; 255
    30e4:	2f e7       	ldi	r18, 0x7F	; 127
    30e6:	81 e0       	ldi	r24, 0x01	; 1
    30e8:	f1 50       	subi	r31, 0x01	; 1
    30ea:	20 40       	sbci	r18, 0x00	; 0
    30ec:	80 40       	sbci	r24, 0x00	; 0
    30ee:	e1 f7       	brne	.-8      	; 0x30e8 <OLED_animation+0x15a>
    30f0:	00 c0       	rjmp	.+0      	; 0x30f2 <OLED_animation+0x164>
    30f2:	00 c0       	rjmp	.+0      	; 0x30f4 <OLED_animation+0x166>
    30f4:	ca 2d       	mov	r28, r10
    30f6:	db 2d       	mov	r29, r11
			{
				*write_d = SRAM_read(i+(j*128));
    30f8:	00 91 06 01 	lds	r16, 0x0106
    30fc:	10 91 07 01 	lds	r17, 0x0107
    3100:	ce 01       	movw	r24, r28
    3102:	8e 0d       	add	r24, r14
    3104:	9f 1d       	adc	r25, r15
    3106:	0e 94 d5 18 	call	0x31aa	; 0x31aa <SRAM_read>
    310a:	f8 01       	movw	r30, r16
    310c:	80 83       	st	Z, r24
	*write_c = 0b0001;
	
	for(int k=0;k<10;k++){
		for(int j=0; j<7; j++){
			_delay_ms(100);
			for (int i = 0 ; i<8*128 ; i++)
    310e:	21 96       	adiw	r28, 0x01	; 1
    3110:	c1 15       	cp	r28, r1
    3112:	f4 e0       	ldi	r31, 0x04	; 4
    3114:	df 07       	cpc	r29, r31
    3116:	81 f7       	brne	.-32     	; 0x30f8 <OLED_animation+0x16a>
    3118:	20 e8       	ldi	r18, 0x80	; 128
    311a:	e2 0e       	add	r14, r18
    311c:	f1 1c       	adc	r15, r1
	OLED_Home();
	*write_c = 0x20;
	*write_c = 0b0001;
	
	for(int k=0;k<10;k++){
		for(int j=0; j<7; j++){
    311e:	80 e8       	ldi	r24, 0x80	; 128
    3120:	e8 16       	cp	r14, r24
    3122:	83 e0       	ldi	r24, 0x03	; 3
    3124:	f8 06       	cpc	r15, r24
    3126:	e9 f6       	brne	.-70     	; 0x30e2 <OLED_animation+0x154>
    3128:	91 e0       	ldi	r25, 0x01	; 1
    312a:	c9 1a       	sub	r12, r25
    312c:	d1 08       	sbc	r13, r1
	_delay_ms(1000);
	OLED_Home();
	*write_c = 0x20;
	*write_c = 0b0001;
	
	for(int k=0;k<10;k++){
    312e:	c1 14       	cp	r12, r1
    3130:	d1 04       	cpc	r13, r1
    3132:	19 f0       	breq	.+6      	; 0x313a <OLED_animation+0x1ac>
}

void OLED_animation(){
	OLED_Home();
	*write_c = 0x20;
	*write_c = 0b0001;
    3134:	e8 2c       	mov	r14, r8
    3136:	f9 2c       	mov	r15, r9
    3138:	d4 cf       	rjmp	.-88     	; 0x30e2 <OLED_animation+0x154>
    313a:	ef ef       	ldi	r30, 0xFF	; 255
    313c:	ff ef       	ldi	r31, 0xFF	; 255
    313e:	2a e4       	ldi	r18, 0x4A	; 74
    3140:	e1 50       	subi	r30, 0x01	; 1
    3142:	f0 40       	sbci	r31, 0x00	; 0
    3144:	20 40       	sbci	r18, 0x00	; 0
    3146:	e1 f7       	brne	.-8      	; 0x3140 <OLED_animation+0x1b2>
    3148:	00 c0       	rjmp	.+0      	; 0x314a <OLED_animation+0x1bc>
    314a:	00 00       	nop
				*write_d = SRAM_read(i+(j*128));
			}
		}
	}
	_delay_ms(5000);
	*write_c = 0x20;
    314c:	e0 91 08 01 	lds	r30, 0x0108
    3150:	f0 91 09 01 	lds	r31, 0x0109
    3154:	80 e2       	ldi	r24, 0x20	; 32
    3156:	80 83       	st	Z, r24
	*write_c = 0b0010;
    3158:	e0 91 08 01 	lds	r30, 0x0108
    315c:	f0 91 09 01 	lds	r31, 0x0109
    3160:	82 e0       	ldi	r24, 0x02	; 2
    3162:	80 83       	st	Z, r24
}
    3164:	df 91       	pop	r29
    3166:	cf 91       	pop	r28
    3168:	1f 91       	pop	r17
    316a:	0f 91       	pop	r16
    316c:	ff 90       	pop	r15
    316e:	ef 90       	pop	r14
    3170:	df 90       	pop	r13
    3172:	cf 90       	pop	r12
    3174:	bf 90       	pop	r11
    3176:	af 90       	pop	r10
    3178:	9f 90       	pop	r9
    317a:	8f 90       	pop	r8
    317c:	7f 90       	pop	r7
    317e:	6f 90       	pop	r6
    3180:	08 95       	ret

00003182 <SPI_MasterInit>:


void SPI_MasterInit(void)
{
	/* Set MOSI, SS and SCK output, all others input */
	DDRB &= ~(1<<PB6);
    3182:	be 98       	cbi	0x17, 6	; 23
	DDRB |= (1<<PB5)|(1<<PB7)|(1<<PB4);
    3184:	87 b3       	in	r24, 0x17	; 23
    3186:	80 6b       	ori	r24, 0xB0	; 176
    3188:	87 bb       	out	0x17, r24	; 23
	PORTB |= (1<<PB4);
    318a:	c4 9a       	sbi	0x18, 4	; 24
	/* Enable SPI, Master, set clock rate fck/16 */
	SPCR |= (1<<SPE)|(1<<MSTR)|(1<<SPR0);//&~(1<<DORD);
    318c:	8d b1       	in	r24, 0x0d	; 13
    318e:	81 65       	ori	r24, 0x51	; 81
    3190:	8d b9       	out	0x0d, r24	; 13
    3192:	08 95       	ret

00003194 <SPI_tranciever>:
unsigned char SPI_tranciever(unsigned char data)
{

	/* Start transmission */

	SPDR = data;
    3194:	8f b9       	out	0x0f, r24	; 15
	/* Wait for transmission complete */
	while (!(SPSR & (1<<SPIF)));
    3196:	77 9b       	sbis	0x0e, 7	; 14
    3198:	fe cf       	rjmp	.-4      	; 0x3196 <SPI_tranciever+0x2>

	//Return received data
	return SPDR;
    319a:	8f b1       	in	r24, 0x0f	; 15
}
    319c:	08 95       	ret

0000319e <SRAM_write>:
	{
	//Start address for the SRAM
	volatile char *ext_ram = (char *) 0x1800;

	//Write address on SRAM
	ext_ram[address] = data;
    319e:	98 5e       	subi	r25, 0xE8	; 232
    31a0:	fc 01       	movw	r30, r24
    31a2:	60 83       	st	Z, r22
	
	return 0;
	}
    31a4:	80 e0       	ldi	r24, 0x00	; 0
    31a6:	90 e0       	ldi	r25, 0x00	; 0
    31a8:	08 95       	ret

000031aa <SRAM_read>:
	{
	//Start address for the SRAM
	volatile char *ext_ram = (char *) 0x1800;
	
	//Read address from SRAM
	return ext_ram[address];
    31aa:	98 5e       	subi	r25, 0xE8	; 232
    31ac:	fc 01       	movw	r30, r24
    31ae:	80 81       	ld	r24, Z
	}
    31b0:	90 e0       	ldi	r25, 0x00	; 0
    31b2:	08 95       	ret

000031b4 <USART_Receive>:


unsigned char USART_Receive(void)
	{
	//Wait for data to be received
	while ( !(UCSR0A & (1<<RXC0)) );
    31b4:	5f 9b       	sbis	0x0b, 7	; 11
    31b6:	fe cf       	rjmp	.-4      	; 0x31b4 <USART_Receive>
	
	//Get and return received data from buffer
	return UDR0;
    31b8:	8c b1       	in	r24, 0x0c	; 12
	}
    31ba:	08 95       	ret

000031bc <USART_Transmit>:

void USART_Transmit( unsigned char data )
	{
	//Wait for empty transmit buffer
	while ( !( UCSR0A & (1<<UDRE0)) );
    31bc:	5d 9b       	sbis	0x0b, 5	; 11
    31be:	fe cf       	rjmp	.-4      	; 0x31bc <USART_Transmit>
	
	//Put data into buffer, sends the data
	UDR0 = data;
    31c0:	8c b9       	out	0x0c, r24	; 12
    31c2:	08 95       	ret

000031c4 <UartInit>:

	
//}
void UartInit(){
	//Set Baud rate 9600
	UBRR0H = (unsigned char)(MYUBRR >> 8);	// Setter de 8 mest signifikante bitene
    31c4:	10 bc       	out	0x20, r1	; 32
	UBRR0L = (unsigned char)(MYUBRR);	// Setter de 8 minst signifikante bitene
    31c6:	8f e1       	ldi	r24, 0x1F	; 31
    31c8:	89 b9       	out	0x09, r24	; 9
	// Enable receiver and transmitter
	UCSR0B = (1<<RXEN0) | (1<<TXEN0);
    31ca:	88 e1       	ldi	r24, 0x18	; 24
    31cc:	8a b9       	out	0x0a, r24	; 10
	// 8N2
	UCSR0C = (1<<URSEL0) | (1<<USBS0) | (3<<UCSZ00);
    31ce:	8e e8       	ldi	r24, 0x8E	; 142
    31d0:	80 bd       	out	0x20, r24	; 32
	fdevopen(&USART_Transmit, &USART_Receive);
    31d2:	6a ed       	ldi	r22, 0xDA	; 218
    31d4:	78 e1       	ldi	r23, 0x18	; 24
    31d6:	8e ed       	ldi	r24, 0xDE	; 222
    31d8:	98 e1       	ldi	r25, 0x18	; 24
    31da:	0e 94 a2 1a 	call	0x3544	; 0x3544 <fdevopen>
    31de:	08 95       	ret

000031e0 <__divmodhi4>:
    31e0:	97 fb       	bst	r25, 7
    31e2:	07 2e       	mov	r0, r23
    31e4:	16 f4       	brtc	.+4      	; 0x31ea <__divmodhi4+0xa>
    31e6:	00 94       	com	r0
    31e8:	07 d0       	rcall	.+14     	; 0x31f8 <__divmodhi4_neg1>
    31ea:	77 fd       	sbrc	r23, 7
    31ec:	09 d0       	rcall	.+18     	; 0x3200 <__divmodhi4_neg2>
    31ee:	0e 94 04 19 	call	0x3208	; 0x3208 <__udivmodhi4>
    31f2:	07 fc       	sbrc	r0, 7
    31f4:	05 d0       	rcall	.+10     	; 0x3200 <__divmodhi4_neg2>
    31f6:	3e f4       	brtc	.+14     	; 0x3206 <__divmodhi4_exit>

000031f8 <__divmodhi4_neg1>:
    31f8:	90 95       	com	r25
    31fa:	81 95       	neg	r24
    31fc:	9f 4f       	sbci	r25, 0xFF	; 255
    31fe:	08 95       	ret

00003200 <__divmodhi4_neg2>:
    3200:	70 95       	com	r23
    3202:	61 95       	neg	r22
    3204:	7f 4f       	sbci	r23, 0xFF	; 255

00003206 <__divmodhi4_exit>:
    3206:	08 95       	ret

00003208 <__udivmodhi4>:
    3208:	aa 1b       	sub	r26, r26
    320a:	bb 1b       	sub	r27, r27
    320c:	51 e1       	ldi	r21, 0x11	; 17
    320e:	07 c0       	rjmp	.+14     	; 0x321e <__udivmodhi4_ep>

00003210 <__udivmodhi4_loop>:
    3210:	aa 1f       	adc	r26, r26
    3212:	bb 1f       	adc	r27, r27
    3214:	a6 17       	cp	r26, r22
    3216:	b7 07       	cpc	r27, r23
    3218:	10 f0       	brcs	.+4      	; 0x321e <__udivmodhi4_ep>
    321a:	a6 1b       	sub	r26, r22
    321c:	b7 0b       	sbc	r27, r23

0000321e <__udivmodhi4_ep>:
    321e:	88 1f       	adc	r24, r24
    3220:	99 1f       	adc	r25, r25
    3222:	5a 95       	dec	r21
    3224:	a9 f7       	brne	.-22     	; 0x3210 <__udivmodhi4_loop>
    3226:	80 95       	com	r24
    3228:	90 95       	com	r25
    322a:	bc 01       	movw	r22, r24
    322c:	cd 01       	movw	r24, r26
    322e:	08 95       	ret

00003230 <__divsf3>:
    3230:	0c d0       	rcall	.+24     	; 0x324a <__divsf3x>
    3232:	eb c0       	rjmp	.+470    	; 0x340a <__fp_round>
    3234:	e3 d0       	rcall	.+454    	; 0x33fc <__fp_pscB>
    3236:	40 f0       	brcs	.+16     	; 0x3248 <__divsf3+0x18>
    3238:	da d0       	rcall	.+436    	; 0x33ee <__fp_pscA>
    323a:	30 f0       	brcs	.+12     	; 0x3248 <__divsf3+0x18>
    323c:	21 f4       	brne	.+8      	; 0x3246 <__divsf3+0x16>
    323e:	5f 3f       	cpi	r21, 0xFF	; 255
    3240:	19 f0       	breq	.+6      	; 0x3248 <__divsf3+0x18>
    3242:	cc c0       	rjmp	.+408    	; 0x33dc <__fp_inf>
    3244:	51 11       	cpse	r21, r1
    3246:	15 c1       	rjmp	.+554    	; 0x3472 <__fp_szero>
    3248:	cf c0       	rjmp	.+414    	; 0x33e8 <__fp_nan>

0000324a <__divsf3x>:
    324a:	f0 d0       	rcall	.+480    	; 0x342c <__fp_split3>
    324c:	98 f3       	brcs	.-26     	; 0x3234 <__divsf3+0x4>

0000324e <__divsf3_pse>:
    324e:	99 23       	and	r25, r25
    3250:	c9 f3       	breq	.-14     	; 0x3244 <__divsf3+0x14>
    3252:	55 23       	and	r21, r21
    3254:	b1 f3       	breq	.-20     	; 0x3242 <__divsf3+0x12>
    3256:	95 1b       	sub	r25, r21
    3258:	55 0b       	sbc	r21, r21
    325a:	bb 27       	eor	r27, r27
    325c:	aa 27       	eor	r26, r26
    325e:	62 17       	cp	r22, r18
    3260:	73 07       	cpc	r23, r19
    3262:	84 07       	cpc	r24, r20
    3264:	38 f0       	brcs	.+14     	; 0x3274 <__divsf3_pse+0x26>
    3266:	9f 5f       	subi	r25, 0xFF	; 255
    3268:	5f 4f       	sbci	r21, 0xFF	; 255
    326a:	22 0f       	add	r18, r18
    326c:	33 1f       	adc	r19, r19
    326e:	44 1f       	adc	r20, r20
    3270:	aa 1f       	adc	r26, r26
    3272:	a9 f3       	breq	.-22     	; 0x325e <__divsf3_pse+0x10>
    3274:	33 d0       	rcall	.+102    	; 0x32dc <__divsf3_pse+0x8e>
    3276:	0e 2e       	mov	r0, r30
    3278:	3a f0       	brmi	.+14     	; 0x3288 <__divsf3_pse+0x3a>
    327a:	e0 e8       	ldi	r30, 0x80	; 128
    327c:	30 d0       	rcall	.+96     	; 0x32de <__divsf3_pse+0x90>
    327e:	91 50       	subi	r25, 0x01	; 1
    3280:	50 40       	sbci	r21, 0x00	; 0
    3282:	e6 95       	lsr	r30
    3284:	00 1c       	adc	r0, r0
    3286:	ca f7       	brpl	.-14     	; 0x327a <__divsf3_pse+0x2c>
    3288:	29 d0       	rcall	.+82     	; 0x32dc <__divsf3_pse+0x8e>
    328a:	fe 2f       	mov	r31, r30
    328c:	27 d0       	rcall	.+78     	; 0x32dc <__divsf3_pse+0x8e>
    328e:	66 0f       	add	r22, r22
    3290:	77 1f       	adc	r23, r23
    3292:	88 1f       	adc	r24, r24
    3294:	bb 1f       	adc	r27, r27
    3296:	26 17       	cp	r18, r22
    3298:	37 07       	cpc	r19, r23
    329a:	48 07       	cpc	r20, r24
    329c:	ab 07       	cpc	r26, r27
    329e:	b0 e8       	ldi	r27, 0x80	; 128
    32a0:	09 f0       	breq	.+2      	; 0x32a4 <__divsf3_pse+0x56>
    32a2:	bb 0b       	sbc	r27, r27
    32a4:	80 2d       	mov	r24, r0
    32a6:	bf 01       	movw	r22, r30
    32a8:	ff 27       	eor	r31, r31
    32aa:	93 58       	subi	r25, 0x83	; 131
    32ac:	5f 4f       	sbci	r21, 0xFF	; 255
    32ae:	2a f0       	brmi	.+10     	; 0x32ba <__divsf3_pse+0x6c>
    32b0:	9e 3f       	cpi	r25, 0xFE	; 254
    32b2:	51 05       	cpc	r21, r1
    32b4:	68 f0       	brcs	.+26     	; 0x32d0 <__divsf3_pse+0x82>
    32b6:	92 c0       	rjmp	.+292    	; 0x33dc <__fp_inf>
    32b8:	dc c0       	rjmp	.+440    	; 0x3472 <__fp_szero>
    32ba:	5f 3f       	cpi	r21, 0xFF	; 255
    32bc:	ec f3       	brlt	.-6      	; 0x32b8 <__divsf3_pse+0x6a>
    32be:	98 3e       	cpi	r25, 0xE8	; 232
    32c0:	dc f3       	brlt	.-10     	; 0x32b8 <__divsf3_pse+0x6a>
    32c2:	86 95       	lsr	r24
    32c4:	77 95       	ror	r23
    32c6:	67 95       	ror	r22
    32c8:	b7 95       	ror	r27
    32ca:	f7 95       	ror	r31
    32cc:	9f 5f       	subi	r25, 0xFF	; 255
    32ce:	c9 f7       	brne	.-14     	; 0x32c2 <__divsf3_pse+0x74>
    32d0:	88 0f       	add	r24, r24
    32d2:	91 1d       	adc	r25, r1
    32d4:	96 95       	lsr	r25
    32d6:	87 95       	ror	r24
    32d8:	97 f9       	bld	r25, 7
    32da:	08 95       	ret
    32dc:	e1 e0       	ldi	r30, 0x01	; 1
    32de:	66 0f       	add	r22, r22
    32e0:	77 1f       	adc	r23, r23
    32e2:	88 1f       	adc	r24, r24
    32e4:	bb 1f       	adc	r27, r27
    32e6:	62 17       	cp	r22, r18
    32e8:	73 07       	cpc	r23, r19
    32ea:	84 07       	cpc	r24, r20
    32ec:	ba 07       	cpc	r27, r26
    32ee:	20 f0       	brcs	.+8      	; 0x32f8 <__divsf3_pse+0xaa>
    32f0:	62 1b       	sub	r22, r18
    32f2:	73 0b       	sbc	r23, r19
    32f4:	84 0b       	sbc	r24, r20
    32f6:	ba 0b       	sbc	r27, r26
    32f8:	ee 1f       	adc	r30, r30
    32fa:	88 f7       	brcc	.-30     	; 0x32de <__divsf3_pse+0x90>
    32fc:	e0 95       	com	r30
    32fe:	08 95       	ret

00003300 <__fixsfsi>:
    3300:	04 d0       	rcall	.+8      	; 0x330a <__fixunssfsi>
    3302:	68 94       	set
    3304:	b1 11       	cpse	r27, r1
    3306:	b5 c0       	rjmp	.+362    	; 0x3472 <__fp_szero>
    3308:	08 95       	ret

0000330a <__fixunssfsi>:
    330a:	98 d0       	rcall	.+304    	; 0x343c <__fp_splitA>
    330c:	88 f0       	brcs	.+34     	; 0x3330 <__fixunssfsi+0x26>
    330e:	9f 57       	subi	r25, 0x7F	; 127
    3310:	90 f0       	brcs	.+36     	; 0x3336 <__fixunssfsi+0x2c>
    3312:	b9 2f       	mov	r27, r25
    3314:	99 27       	eor	r25, r25
    3316:	b7 51       	subi	r27, 0x17	; 23
    3318:	a0 f0       	brcs	.+40     	; 0x3342 <__fixunssfsi+0x38>
    331a:	d1 f0       	breq	.+52     	; 0x3350 <__fixunssfsi+0x46>
    331c:	66 0f       	add	r22, r22
    331e:	77 1f       	adc	r23, r23
    3320:	88 1f       	adc	r24, r24
    3322:	99 1f       	adc	r25, r25
    3324:	1a f0       	brmi	.+6      	; 0x332c <__fixunssfsi+0x22>
    3326:	ba 95       	dec	r27
    3328:	c9 f7       	brne	.-14     	; 0x331c <__fixunssfsi+0x12>
    332a:	12 c0       	rjmp	.+36     	; 0x3350 <__fixunssfsi+0x46>
    332c:	b1 30       	cpi	r27, 0x01	; 1
    332e:	81 f0       	breq	.+32     	; 0x3350 <__fixunssfsi+0x46>
    3330:	9f d0       	rcall	.+318    	; 0x3470 <__fp_zero>
    3332:	b1 e0       	ldi	r27, 0x01	; 1
    3334:	08 95       	ret
    3336:	9c c0       	rjmp	.+312    	; 0x3470 <__fp_zero>
    3338:	67 2f       	mov	r22, r23
    333a:	78 2f       	mov	r23, r24
    333c:	88 27       	eor	r24, r24
    333e:	b8 5f       	subi	r27, 0xF8	; 248
    3340:	39 f0       	breq	.+14     	; 0x3350 <__fixunssfsi+0x46>
    3342:	b9 3f       	cpi	r27, 0xF9	; 249
    3344:	cc f3       	brlt	.-14     	; 0x3338 <__fixunssfsi+0x2e>
    3346:	86 95       	lsr	r24
    3348:	77 95       	ror	r23
    334a:	67 95       	ror	r22
    334c:	b3 95       	inc	r27
    334e:	d9 f7       	brne	.-10     	; 0x3346 <__fixunssfsi+0x3c>
    3350:	3e f4       	brtc	.+14     	; 0x3360 <__fixunssfsi+0x56>
    3352:	90 95       	com	r25
    3354:	80 95       	com	r24
    3356:	70 95       	com	r23
    3358:	61 95       	neg	r22
    335a:	7f 4f       	sbci	r23, 0xFF	; 255
    335c:	8f 4f       	sbci	r24, 0xFF	; 255
    335e:	9f 4f       	sbci	r25, 0xFF	; 255
    3360:	08 95       	ret

00003362 <__floatunsisf>:
    3362:	e8 94       	clt
    3364:	09 c0       	rjmp	.+18     	; 0x3378 <__floatsisf+0x12>

00003366 <__floatsisf>:
    3366:	97 fb       	bst	r25, 7
    3368:	3e f4       	brtc	.+14     	; 0x3378 <__floatsisf+0x12>
    336a:	90 95       	com	r25
    336c:	80 95       	com	r24
    336e:	70 95       	com	r23
    3370:	61 95       	neg	r22
    3372:	7f 4f       	sbci	r23, 0xFF	; 255
    3374:	8f 4f       	sbci	r24, 0xFF	; 255
    3376:	9f 4f       	sbci	r25, 0xFF	; 255
    3378:	99 23       	and	r25, r25
    337a:	a9 f0       	breq	.+42     	; 0x33a6 <__floatsisf+0x40>
    337c:	f9 2f       	mov	r31, r25
    337e:	96 e9       	ldi	r25, 0x96	; 150
    3380:	bb 27       	eor	r27, r27
    3382:	93 95       	inc	r25
    3384:	f6 95       	lsr	r31
    3386:	87 95       	ror	r24
    3388:	77 95       	ror	r23
    338a:	67 95       	ror	r22
    338c:	b7 95       	ror	r27
    338e:	f1 11       	cpse	r31, r1
    3390:	f8 cf       	rjmp	.-16     	; 0x3382 <__floatsisf+0x1c>
    3392:	fa f4       	brpl	.+62     	; 0x33d2 <__floatsisf+0x6c>
    3394:	bb 0f       	add	r27, r27
    3396:	11 f4       	brne	.+4      	; 0x339c <__floatsisf+0x36>
    3398:	60 ff       	sbrs	r22, 0
    339a:	1b c0       	rjmp	.+54     	; 0x33d2 <__floatsisf+0x6c>
    339c:	6f 5f       	subi	r22, 0xFF	; 255
    339e:	7f 4f       	sbci	r23, 0xFF	; 255
    33a0:	8f 4f       	sbci	r24, 0xFF	; 255
    33a2:	9f 4f       	sbci	r25, 0xFF	; 255
    33a4:	16 c0       	rjmp	.+44     	; 0x33d2 <__floatsisf+0x6c>
    33a6:	88 23       	and	r24, r24
    33a8:	11 f0       	breq	.+4      	; 0x33ae <__floatsisf+0x48>
    33aa:	96 e9       	ldi	r25, 0x96	; 150
    33ac:	11 c0       	rjmp	.+34     	; 0x33d0 <__floatsisf+0x6a>
    33ae:	77 23       	and	r23, r23
    33b0:	21 f0       	breq	.+8      	; 0x33ba <__floatsisf+0x54>
    33b2:	9e e8       	ldi	r25, 0x8E	; 142
    33b4:	87 2f       	mov	r24, r23
    33b6:	76 2f       	mov	r23, r22
    33b8:	05 c0       	rjmp	.+10     	; 0x33c4 <__floatsisf+0x5e>
    33ba:	66 23       	and	r22, r22
    33bc:	71 f0       	breq	.+28     	; 0x33da <__floatsisf+0x74>
    33be:	96 e8       	ldi	r25, 0x86	; 134
    33c0:	86 2f       	mov	r24, r22
    33c2:	70 e0       	ldi	r23, 0x00	; 0
    33c4:	60 e0       	ldi	r22, 0x00	; 0
    33c6:	2a f0       	brmi	.+10     	; 0x33d2 <__floatsisf+0x6c>
    33c8:	9a 95       	dec	r25
    33ca:	66 0f       	add	r22, r22
    33cc:	77 1f       	adc	r23, r23
    33ce:	88 1f       	adc	r24, r24
    33d0:	da f7       	brpl	.-10     	; 0x33c8 <__floatsisf+0x62>
    33d2:	88 0f       	add	r24, r24
    33d4:	96 95       	lsr	r25
    33d6:	87 95       	ror	r24
    33d8:	97 f9       	bld	r25, 7
    33da:	08 95       	ret

000033dc <__fp_inf>:
    33dc:	97 f9       	bld	r25, 7
    33de:	9f 67       	ori	r25, 0x7F	; 127
    33e0:	80 e8       	ldi	r24, 0x80	; 128
    33e2:	70 e0       	ldi	r23, 0x00	; 0
    33e4:	60 e0       	ldi	r22, 0x00	; 0
    33e6:	08 95       	ret

000033e8 <__fp_nan>:
    33e8:	9f ef       	ldi	r25, 0xFF	; 255
    33ea:	80 ec       	ldi	r24, 0xC0	; 192
    33ec:	08 95       	ret

000033ee <__fp_pscA>:
    33ee:	00 24       	eor	r0, r0
    33f0:	0a 94       	dec	r0
    33f2:	16 16       	cp	r1, r22
    33f4:	17 06       	cpc	r1, r23
    33f6:	18 06       	cpc	r1, r24
    33f8:	09 06       	cpc	r0, r25
    33fa:	08 95       	ret

000033fc <__fp_pscB>:
    33fc:	00 24       	eor	r0, r0
    33fe:	0a 94       	dec	r0
    3400:	12 16       	cp	r1, r18
    3402:	13 06       	cpc	r1, r19
    3404:	14 06       	cpc	r1, r20
    3406:	05 06       	cpc	r0, r21
    3408:	08 95       	ret

0000340a <__fp_round>:
    340a:	09 2e       	mov	r0, r25
    340c:	03 94       	inc	r0
    340e:	00 0c       	add	r0, r0
    3410:	11 f4       	brne	.+4      	; 0x3416 <__fp_round+0xc>
    3412:	88 23       	and	r24, r24
    3414:	52 f0       	brmi	.+20     	; 0x342a <__fp_round+0x20>
    3416:	bb 0f       	add	r27, r27
    3418:	40 f4       	brcc	.+16     	; 0x342a <__fp_round+0x20>
    341a:	bf 2b       	or	r27, r31
    341c:	11 f4       	brne	.+4      	; 0x3422 <__fp_round+0x18>
    341e:	60 ff       	sbrs	r22, 0
    3420:	04 c0       	rjmp	.+8      	; 0x342a <__fp_round+0x20>
    3422:	6f 5f       	subi	r22, 0xFF	; 255
    3424:	7f 4f       	sbci	r23, 0xFF	; 255
    3426:	8f 4f       	sbci	r24, 0xFF	; 255
    3428:	9f 4f       	sbci	r25, 0xFF	; 255
    342a:	08 95       	ret

0000342c <__fp_split3>:
    342c:	57 fd       	sbrc	r21, 7
    342e:	90 58       	subi	r25, 0x80	; 128
    3430:	44 0f       	add	r20, r20
    3432:	55 1f       	adc	r21, r21
    3434:	59 f0       	breq	.+22     	; 0x344c <__fp_splitA+0x10>
    3436:	5f 3f       	cpi	r21, 0xFF	; 255
    3438:	71 f0       	breq	.+28     	; 0x3456 <__fp_splitA+0x1a>
    343a:	47 95       	ror	r20

0000343c <__fp_splitA>:
    343c:	88 0f       	add	r24, r24
    343e:	97 fb       	bst	r25, 7
    3440:	99 1f       	adc	r25, r25
    3442:	61 f0       	breq	.+24     	; 0x345c <__fp_splitA+0x20>
    3444:	9f 3f       	cpi	r25, 0xFF	; 255
    3446:	79 f0       	breq	.+30     	; 0x3466 <__fp_splitA+0x2a>
    3448:	87 95       	ror	r24
    344a:	08 95       	ret
    344c:	12 16       	cp	r1, r18
    344e:	13 06       	cpc	r1, r19
    3450:	14 06       	cpc	r1, r20
    3452:	55 1f       	adc	r21, r21
    3454:	f2 cf       	rjmp	.-28     	; 0x343a <__fp_split3+0xe>
    3456:	46 95       	lsr	r20
    3458:	f1 df       	rcall	.-30     	; 0x343c <__fp_splitA>
    345a:	08 c0       	rjmp	.+16     	; 0x346c <__fp_splitA+0x30>
    345c:	16 16       	cp	r1, r22
    345e:	17 06       	cpc	r1, r23
    3460:	18 06       	cpc	r1, r24
    3462:	99 1f       	adc	r25, r25
    3464:	f1 cf       	rjmp	.-30     	; 0x3448 <__fp_splitA+0xc>
    3466:	86 95       	lsr	r24
    3468:	71 05       	cpc	r23, r1
    346a:	61 05       	cpc	r22, r1
    346c:	08 94       	sec
    346e:	08 95       	ret

00003470 <__fp_zero>:
    3470:	e8 94       	clt

00003472 <__fp_szero>:
    3472:	bb 27       	eor	r27, r27
    3474:	66 27       	eor	r22, r22
    3476:	77 27       	eor	r23, r23
    3478:	cb 01       	movw	r24, r22
    347a:	97 f9       	bld	r25, 7
    347c:	08 95       	ret

0000347e <__mulsf3>:
    347e:	0b d0       	rcall	.+22     	; 0x3496 <__mulsf3x>
    3480:	c4 cf       	rjmp	.-120    	; 0x340a <__fp_round>
    3482:	b5 df       	rcall	.-150    	; 0x33ee <__fp_pscA>
    3484:	28 f0       	brcs	.+10     	; 0x3490 <__mulsf3+0x12>
    3486:	ba df       	rcall	.-140    	; 0x33fc <__fp_pscB>
    3488:	18 f0       	brcs	.+6      	; 0x3490 <__mulsf3+0x12>
    348a:	95 23       	and	r25, r21
    348c:	09 f0       	breq	.+2      	; 0x3490 <__mulsf3+0x12>
    348e:	a6 cf       	rjmp	.-180    	; 0x33dc <__fp_inf>
    3490:	ab cf       	rjmp	.-170    	; 0x33e8 <__fp_nan>
    3492:	11 24       	eor	r1, r1
    3494:	ee cf       	rjmp	.-36     	; 0x3472 <__fp_szero>

00003496 <__mulsf3x>:
    3496:	ca df       	rcall	.-108    	; 0x342c <__fp_split3>
    3498:	a0 f3       	brcs	.-24     	; 0x3482 <__mulsf3+0x4>

0000349a <__mulsf3_pse>:
    349a:	95 9f       	mul	r25, r21
    349c:	d1 f3       	breq	.-12     	; 0x3492 <__mulsf3+0x14>
    349e:	95 0f       	add	r25, r21
    34a0:	50 e0       	ldi	r21, 0x00	; 0
    34a2:	55 1f       	adc	r21, r21
    34a4:	62 9f       	mul	r22, r18
    34a6:	f0 01       	movw	r30, r0
    34a8:	72 9f       	mul	r23, r18
    34aa:	bb 27       	eor	r27, r27
    34ac:	f0 0d       	add	r31, r0
    34ae:	b1 1d       	adc	r27, r1
    34b0:	63 9f       	mul	r22, r19
    34b2:	aa 27       	eor	r26, r26
    34b4:	f0 0d       	add	r31, r0
    34b6:	b1 1d       	adc	r27, r1
    34b8:	aa 1f       	adc	r26, r26
    34ba:	64 9f       	mul	r22, r20
    34bc:	66 27       	eor	r22, r22
    34be:	b0 0d       	add	r27, r0
    34c0:	a1 1d       	adc	r26, r1
    34c2:	66 1f       	adc	r22, r22
    34c4:	82 9f       	mul	r24, r18
    34c6:	22 27       	eor	r18, r18
    34c8:	b0 0d       	add	r27, r0
    34ca:	a1 1d       	adc	r26, r1
    34cc:	62 1f       	adc	r22, r18
    34ce:	73 9f       	mul	r23, r19
    34d0:	b0 0d       	add	r27, r0
    34d2:	a1 1d       	adc	r26, r1
    34d4:	62 1f       	adc	r22, r18
    34d6:	83 9f       	mul	r24, r19
    34d8:	a0 0d       	add	r26, r0
    34da:	61 1d       	adc	r22, r1
    34dc:	22 1f       	adc	r18, r18
    34de:	74 9f       	mul	r23, r20
    34e0:	33 27       	eor	r19, r19
    34e2:	a0 0d       	add	r26, r0
    34e4:	61 1d       	adc	r22, r1
    34e6:	23 1f       	adc	r18, r19
    34e8:	84 9f       	mul	r24, r20
    34ea:	60 0d       	add	r22, r0
    34ec:	21 1d       	adc	r18, r1
    34ee:	82 2f       	mov	r24, r18
    34f0:	76 2f       	mov	r23, r22
    34f2:	6a 2f       	mov	r22, r26
    34f4:	11 24       	eor	r1, r1
    34f6:	9f 57       	subi	r25, 0x7F	; 127
    34f8:	50 40       	sbci	r21, 0x00	; 0
    34fa:	8a f0       	brmi	.+34     	; 0x351e <__mulsf3_pse+0x84>
    34fc:	e1 f0       	breq	.+56     	; 0x3536 <__mulsf3_pse+0x9c>
    34fe:	88 23       	and	r24, r24
    3500:	4a f0       	brmi	.+18     	; 0x3514 <__mulsf3_pse+0x7a>
    3502:	ee 0f       	add	r30, r30
    3504:	ff 1f       	adc	r31, r31
    3506:	bb 1f       	adc	r27, r27
    3508:	66 1f       	adc	r22, r22
    350a:	77 1f       	adc	r23, r23
    350c:	88 1f       	adc	r24, r24
    350e:	91 50       	subi	r25, 0x01	; 1
    3510:	50 40       	sbci	r21, 0x00	; 0
    3512:	a9 f7       	brne	.-22     	; 0x34fe <__mulsf3_pse+0x64>
    3514:	9e 3f       	cpi	r25, 0xFE	; 254
    3516:	51 05       	cpc	r21, r1
    3518:	70 f0       	brcs	.+28     	; 0x3536 <__mulsf3_pse+0x9c>
    351a:	60 cf       	rjmp	.-320    	; 0x33dc <__fp_inf>
    351c:	aa cf       	rjmp	.-172    	; 0x3472 <__fp_szero>
    351e:	5f 3f       	cpi	r21, 0xFF	; 255
    3520:	ec f3       	brlt	.-6      	; 0x351c <__mulsf3_pse+0x82>
    3522:	98 3e       	cpi	r25, 0xE8	; 232
    3524:	dc f3       	brlt	.-10     	; 0x351c <__mulsf3_pse+0x82>
    3526:	86 95       	lsr	r24
    3528:	77 95       	ror	r23
    352a:	67 95       	ror	r22
    352c:	b7 95       	ror	r27
    352e:	f7 95       	ror	r31
    3530:	e7 95       	ror	r30
    3532:	9f 5f       	subi	r25, 0xFF	; 255
    3534:	c1 f7       	brne	.-16     	; 0x3526 <__mulsf3_pse+0x8c>
    3536:	fe 2b       	or	r31, r30
    3538:	88 0f       	add	r24, r24
    353a:	91 1d       	adc	r25, r1
    353c:	96 95       	lsr	r25
    353e:	87 95       	ror	r24
    3540:	97 f9       	bld	r25, 7
    3542:	08 95       	ret

00003544 <fdevopen>:
    3544:	0f 93       	push	r16
    3546:	1f 93       	push	r17
    3548:	cf 93       	push	r28
    354a:	df 93       	push	r29
    354c:	ec 01       	movw	r28, r24
    354e:	8b 01       	movw	r16, r22
    3550:	00 97       	sbiw	r24, 0x00	; 0
    3552:	31 f4       	brne	.+12     	; 0x3560 <fdevopen+0x1c>
    3554:	61 15       	cp	r22, r1
    3556:	71 05       	cpc	r23, r1
    3558:	19 f4       	brne	.+6      	; 0x3560 <fdevopen+0x1c>
    355a:	80 e0       	ldi	r24, 0x00	; 0
    355c:	90 e0       	ldi	r25, 0x00	; 0
    355e:	38 c0       	rjmp	.+112    	; 0x35d0 <fdevopen+0x8c>
    3560:	6e e0       	ldi	r22, 0x0E	; 14
    3562:	70 e0       	ldi	r23, 0x00	; 0
    3564:	81 e0       	ldi	r24, 0x01	; 1
    3566:	90 e0       	ldi	r25, 0x00	; 0
    3568:	0e 94 00 1d 	call	0x3a00	; 0x3a00 <calloc>
    356c:	fc 01       	movw	r30, r24
    356e:	00 97       	sbiw	r24, 0x00	; 0
    3570:	a1 f3       	breq	.-24     	; 0x355a <fdevopen+0x16>
    3572:	80 e8       	ldi	r24, 0x80	; 128
    3574:	83 83       	std	Z+3, r24	; 0x03
    3576:	01 15       	cp	r16, r1
    3578:	11 05       	cpc	r17, r1
    357a:	71 f0       	breq	.+28     	; 0x3598 <fdevopen+0x54>
    357c:	13 87       	std	Z+11, r17	; 0x0b
    357e:	02 87       	std	Z+10, r16	; 0x0a
    3580:	81 e8       	ldi	r24, 0x81	; 129
    3582:	83 83       	std	Z+3, r24	; 0x03
    3584:	80 91 c0 02 	lds	r24, 0x02C0
    3588:	90 91 c1 02 	lds	r25, 0x02C1
    358c:	89 2b       	or	r24, r25
    358e:	21 f4       	brne	.+8      	; 0x3598 <fdevopen+0x54>
    3590:	f0 93 c1 02 	sts	0x02C1, r31
    3594:	e0 93 c0 02 	sts	0x02C0, r30
    3598:	20 97       	sbiw	r28, 0x00	; 0
    359a:	c9 f0       	breq	.+50     	; 0x35ce <fdevopen+0x8a>
    359c:	d1 87       	std	Z+9, r29	; 0x09
    359e:	c0 87       	std	Z+8, r28	; 0x08
    35a0:	83 81       	ldd	r24, Z+3	; 0x03
    35a2:	82 60       	ori	r24, 0x02	; 2
    35a4:	83 83       	std	Z+3, r24	; 0x03
    35a6:	80 91 c2 02 	lds	r24, 0x02C2
    35aa:	90 91 c3 02 	lds	r25, 0x02C3
    35ae:	89 2b       	or	r24, r25
    35b0:	71 f4       	brne	.+28     	; 0x35ce <fdevopen+0x8a>
    35b2:	f0 93 c3 02 	sts	0x02C3, r31
    35b6:	e0 93 c2 02 	sts	0x02C2, r30
    35ba:	80 91 c4 02 	lds	r24, 0x02C4
    35be:	90 91 c5 02 	lds	r25, 0x02C5
    35c2:	89 2b       	or	r24, r25
    35c4:	21 f4       	brne	.+8      	; 0x35ce <fdevopen+0x8a>
    35c6:	f0 93 c5 02 	sts	0x02C5, r31
    35ca:	e0 93 c4 02 	sts	0x02C4, r30
    35ce:	cf 01       	movw	r24, r30
    35d0:	df 91       	pop	r29
    35d2:	cf 91       	pop	r28
    35d4:	1f 91       	pop	r17
    35d6:	0f 91       	pop	r16
    35d8:	08 95       	ret

000035da <printf>:
    35da:	a0 e0       	ldi	r26, 0x00	; 0
    35dc:	b0 e0       	ldi	r27, 0x00	; 0
    35de:	e3 ef       	ldi	r30, 0xF3	; 243
    35e0:	fa e1       	ldi	r31, 0x1A	; 26
    35e2:	0c 94 00 1f 	jmp	0x3e00	; 0x3e00 <__prologue_saves__+0x20>
    35e6:	fe 01       	movw	r30, r28
    35e8:	35 96       	adiw	r30, 0x05	; 5
    35ea:	61 91       	ld	r22, Z+
    35ec:	71 91       	ld	r23, Z+
    35ee:	af 01       	movw	r20, r30
    35f0:	80 91 c2 02 	lds	r24, 0x02C2
    35f4:	90 91 c3 02 	lds	r25, 0x02C3
    35f8:	0e 94 2e 1b 	call	0x365c	; 0x365c <vfprintf>
    35fc:	e2 e0       	ldi	r30, 0x02	; 2
    35fe:	0c 94 1c 1f 	jmp	0x3e38	; 0x3e38 <__epilogue_restores__+0x20>

00003602 <puts>:
    3602:	0f 93       	push	r16
    3604:	1f 93       	push	r17
    3606:	cf 93       	push	r28
    3608:	df 93       	push	r29
    360a:	e0 91 c2 02 	lds	r30, 0x02C2
    360e:	f0 91 c3 02 	lds	r31, 0x02C3
    3612:	23 81       	ldd	r18, Z+3	; 0x03
    3614:	21 ff       	sbrs	r18, 1
    3616:	1b c0       	rjmp	.+54     	; 0x364e <puts+0x4c>
    3618:	ec 01       	movw	r28, r24
    361a:	00 e0       	ldi	r16, 0x00	; 0
    361c:	10 e0       	ldi	r17, 0x00	; 0
    361e:	89 91       	ld	r24, Y+
    3620:	60 91 c2 02 	lds	r22, 0x02C2
    3624:	70 91 c3 02 	lds	r23, 0x02C3
    3628:	db 01       	movw	r26, r22
    362a:	18 96       	adiw	r26, 0x08	; 8
    362c:	ed 91       	ld	r30, X+
    362e:	fc 91       	ld	r31, X
    3630:	19 97       	sbiw	r26, 0x09	; 9
    3632:	88 23       	and	r24, r24
    3634:	31 f0       	breq	.+12     	; 0x3642 <puts+0x40>
    3636:	09 95       	icall
    3638:	89 2b       	or	r24, r25
    363a:	89 f3       	breq	.-30     	; 0x361e <puts+0x1c>
    363c:	0f ef       	ldi	r16, 0xFF	; 255
    363e:	1f ef       	ldi	r17, 0xFF	; 255
    3640:	ee cf       	rjmp	.-36     	; 0x361e <puts+0x1c>
    3642:	8a e0       	ldi	r24, 0x0A	; 10
    3644:	09 95       	icall
    3646:	89 2b       	or	r24, r25
    3648:	11 f4       	brne	.+4      	; 0x364e <puts+0x4c>
    364a:	c8 01       	movw	r24, r16
    364c:	02 c0       	rjmp	.+4      	; 0x3652 <puts+0x50>
    364e:	8f ef       	ldi	r24, 0xFF	; 255
    3650:	9f ef       	ldi	r25, 0xFF	; 255
    3652:	df 91       	pop	r29
    3654:	cf 91       	pop	r28
    3656:	1f 91       	pop	r17
    3658:	0f 91       	pop	r16
    365a:	08 95       	ret

0000365c <vfprintf>:
    365c:	ac e0       	ldi	r26, 0x0C	; 12
    365e:	b0 e0       	ldi	r27, 0x00	; 0
    3660:	e4 e3       	ldi	r30, 0x34	; 52
    3662:	fb e1       	ldi	r31, 0x1B	; 27
    3664:	0c 94 f0 1e 	jmp	0x3de0	; 0x3de0 <__prologue_saves__>
    3668:	7c 01       	movw	r14, r24
    366a:	6b 01       	movw	r12, r22
    366c:	8a 01       	movw	r16, r20
    366e:	fc 01       	movw	r30, r24
    3670:	17 82       	std	Z+7, r1	; 0x07
    3672:	16 82       	std	Z+6, r1	; 0x06
    3674:	83 81       	ldd	r24, Z+3	; 0x03
    3676:	81 ff       	sbrs	r24, 1
    3678:	bd c1       	rjmp	.+890    	; 0x39f4 <vfprintf+0x398>
    367a:	ce 01       	movw	r24, r28
    367c:	01 96       	adiw	r24, 0x01	; 1
    367e:	4c 01       	movw	r8, r24
    3680:	f7 01       	movw	r30, r14
    3682:	93 81       	ldd	r25, Z+3	; 0x03
    3684:	f6 01       	movw	r30, r12
    3686:	93 fd       	sbrc	r25, 3
    3688:	85 91       	lpm	r24, Z+
    368a:	93 ff       	sbrs	r25, 3
    368c:	81 91       	ld	r24, Z+
    368e:	6f 01       	movw	r12, r30
    3690:	88 23       	and	r24, r24
    3692:	09 f4       	brne	.+2      	; 0x3696 <vfprintf+0x3a>
    3694:	ab c1       	rjmp	.+854    	; 0x39ec <vfprintf+0x390>
    3696:	85 32       	cpi	r24, 0x25	; 37
    3698:	39 f4       	brne	.+14     	; 0x36a8 <vfprintf+0x4c>
    369a:	93 fd       	sbrc	r25, 3
    369c:	85 91       	lpm	r24, Z+
    369e:	93 ff       	sbrs	r25, 3
    36a0:	81 91       	ld	r24, Z+
    36a2:	6f 01       	movw	r12, r30
    36a4:	85 32       	cpi	r24, 0x25	; 37
    36a6:	29 f4       	brne	.+10     	; 0x36b2 <vfprintf+0x56>
    36a8:	b7 01       	movw	r22, r14
    36aa:	90 e0       	ldi	r25, 0x00	; 0
    36ac:	0e 94 60 1e 	call	0x3cc0	; 0x3cc0 <fputc>
    36b0:	e7 cf       	rjmp	.-50     	; 0x3680 <vfprintf+0x24>
    36b2:	51 2c       	mov	r5, r1
    36b4:	31 2c       	mov	r3, r1
    36b6:	20 e0       	ldi	r18, 0x00	; 0
    36b8:	20 32       	cpi	r18, 0x20	; 32
    36ba:	a0 f4       	brcc	.+40     	; 0x36e4 <vfprintf+0x88>
    36bc:	8b 32       	cpi	r24, 0x2B	; 43
    36be:	69 f0       	breq	.+26     	; 0x36da <vfprintf+0x7e>
    36c0:	30 f4       	brcc	.+12     	; 0x36ce <vfprintf+0x72>
    36c2:	80 32       	cpi	r24, 0x20	; 32
    36c4:	59 f0       	breq	.+22     	; 0x36dc <vfprintf+0x80>
    36c6:	83 32       	cpi	r24, 0x23	; 35
    36c8:	69 f4       	brne	.+26     	; 0x36e4 <vfprintf+0x88>
    36ca:	20 61       	ori	r18, 0x10	; 16
    36cc:	2c c0       	rjmp	.+88     	; 0x3726 <vfprintf+0xca>
    36ce:	8d 32       	cpi	r24, 0x2D	; 45
    36d0:	39 f0       	breq	.+14     	; 0x36e0 <vfprintf+0x84>
    36d2:	80 33       	cpi	r24, 0x30	; 48
    36d4:	39 f4       	brne	.+14     	; 0x36e4 <vfprintf+0x88>
    36d6:	21 60       	ori	r18, 0x01	; 1
    36d8:	26 c0       	rjmp	.+76     	; 0x3726 <vfprintf+0xca>
    36da:	22 60       	ori	r18, 0x02	; 2
    36dc:	24 60       	ori	r18, 0x04	; 4
    36de:	23 c0       	rjmp	.+70     	; 0x3726 <vfprintf+0xca>
    36e0:	28 60       	ori	r18, 0x08	; 8
    36e2:	21 c0       	rjmp	.+66     	; 0x3726 <vfprintf+0xca>
    36e4:	27 fd       	sbrc	r18, 7
    36e6:	27 c0       	rjmp	.+78     	; 0x3736 <vfprintf+0xda>
    36e8:	30 ed       	ldi	r19, 0xD0	; 208
    36ea:	38 0f       	add	r19, r24
    36ec:	3a 30       	cpi	r19, 0x0A	; 10
    36ee:	78 f4       	brcc	.+30     	; 0x370e <vfprintf+0xb2>
    36f0:	26 ff       	sbrs	r18, 6
    36f2:	06 c0       	rjmp	.+12     	; 0x3700 <vfprintf+0xa4>
    36f4:	fa e0       	ldi	r31, 0x0A	; 10
    36f6:	5f 9e       	mul	r5, r31
    36f8:	30 0d       	add	r19, r0
    36fa:	11 24       	eor	r1, r1
    36fc:	53 2e       	mov	r5, r19
    36fe:	13 c0       	rjmp	.+38     	; 0x3726 <vfprintf+0xca>
    3700:	8a e0       	ldi	r24, 0x0A	; 10
    3702:	38 9e       	mul	r3, r24
    3704:	30 0d       	add	r19, r0
    3706:	11 24       	eor	r1, r1
    3708:	33 2e       	mov	r3, r19
    370a:	20 62       	ori	r18, 0x20	; 32
    370c:	0c c0       	rjmp	.+24     	; 0x3726 <vfprintf+0xca>
    370e:	8e 32       	cpi	r24, 0x2E	; 46
    3710:	21 f4       	brne	.+8      	; 0x371a <vfprintf+0xbe>
    3712:	26 fd       	sbrc	r18, 6
    3714:	6b c1       	rjmp	.+726    	; 0x39ec <vfprintf+0x390>
    3716:	20 64       	ori	r18, 0x40	; 64
    3718:	06 c0       	rjmp	.+12     	; 0x3726 <vfprintf+0xca>
    371a:	8c 36       	cpi	r24, 0x6C	; 108
    371c:	11 f4       	brne	.+4      	; 0x3722 <vfprintf+0xc6>
    371e:	20 68       	ori	r18, 0x80	; 128
    3720:	02 c0       	rjmp	.+4      	; 0x3726 <vfprintf+0xca>
    3722:	88 36       	cpi	r24, 0x68	; 104
    3724:	41 f4       	brne	.+16     	; 0x3736 <vfprintf+0xda>
    3726:	f6 01       	movw	r30, r12
    3728:	93 fd       	sbrc	r25, 3
    372a:	85 91       	lpm	r24, Z+
    372c:	93 ff       	sbrs	r25, 3
    372e:	81 91       	ld	r24, Z+
    3730:	6f 01       	movw	r12, r30
    3732:	81 11       	cpse	r24, r1
    3734:	c1 cf       	rjmp	.-126    	; 0x36b8 <vfprintf+0x5c>
    3736:	98 2f       	mov	r25, r24
    3738:	9f 7d       	andi	r25, 0xDF	; 223
    373a:	95 54       	subi	r25, 0x45	; 69
    373c:	93 30       	cpi	r25, 0x03	; 3
    373e:	28 f4       	brcc	.+10     	; 0x374a <vfprintf+0xee>
    3740:	0c 5f       	subi	r16, 0xFC	; 252
    3742:	1f 4f       	sbci	r17, 0xFF	; 255
    3744:	ff e3       	ldi	r31, 0x3F	; 63
    3746:	f9 83       	std	Y+1, r31	; 0x01
    3748:	0d c0       	rjmp	.+26     	; 0x3764 <vfprintf+0x108>
    374a:	83 36       	cpi	r24, 0x63	; 99
    374c:	31 f0       	breq	.+12     	; 0x375a <vfprintf+0xfe>
    374e:	83 37       	cpi	r24, 0x73	; 115
    3750:	71 f0       	breq	.+28     	; 0x376e <vfprintf+0x112>
    3752:	83 35       	cpi	r24, 0x53	; 83
    3754:	09 f0       	breq	.+2      	; 0x3758 <vfprintf+0xfc>
    3756:	5b c0       	rjmp	.+182    	; 0x380e <vfprintf+0x1b2>
    3758:	22 c0       	rjmp	.+68     	; 0x379e <vfprintf+0x142>
    375a:	f8 01       	movw	r30, r16
    375c:	80 81       	ld	r24, Z
    375e:	89 83       	std	Y+1, r24	; 0x01
    3760:	0e 5f       	subi	r16, 0xFE	; 254
    3762:	1f 4f       	sbci	r17, 0xFF	; 255
    3764:	44 24       	eor	r4, r4
    3766:	43 94       	inc	r4
    3768:	51 2c       	mov	r5, r1
    376a:	54 01       	movw	r10, r8
    376c:	15 c0       	rjmp	.+42     	; 0x3798 <vfprintf+0x13c>
    376e:	38 01       	movw	r6, r16
    3770:	f2 e0       	ldi	r31, 0x02	; 2
    3772:	6f 0e       	add	r6, r31
    3774:	71 1c       	adc	r7, r1
    3776:	f8 01       	movw	r30, r16
    3778:	a0 80       	ld	r10, Z
    377a:	b1 80       	ldd	r11, Z+1	; 0x01
    377c:	26 ff       	sbrs	r18, 6
    377e:	03 c0       	rjmp	.+6      	; 0x3786 <vfprintf+0x12a>
    3780:	65 2d       	mov	r22, r5
    3782:	70 e0       	ldi	r23, 0x00	; 0
    3784:	02 c0       	rjmp	.+4      	; 0x378a <vfprintf+0x12e>
    3786:	6f ef       	ldi	r22, 0xFF	; 255
    3788:	7f ef       	ldi	r23, 0xFF	; 255
    378a:	c5 01       	movw	r24, r10
    378c:	2c 87       	std	Y+12, r18	; 0x0c
    378e:	0e 94 55 1e 	call	0x3caa	; 0x3caa <strnlen>
    3792:	2c 01       	movw	r4, r24
    3794:	83 01       	movw	r16, r6
    3796:	2c 85       	ldd	r18, Y+12	; 0x0c
    3798:	2f 77       	andi	r18, 0x7F	; 127
    379a:	22 2e       	mov	r2, r18
    379c:	17 c0       	rjmp	.+46     	; 0x37cc <vfprintf+0x170>
    379e:	38 01       	movw	r6, r16
    37a0:	f2 e0       	ldi	r31, 0x02	; 2
    37a2:	6f 0e       	add	r6, r31
    37a4:	71 1c       	adc	r7, r1
    37a6:	f8 01       	movw	r30, r16
    37a8:	a0 80       	ld	r10, Z
    37aa:	b1 80       	ldd	r11, Z+1	; 0x01
    37ac:	26 ff       	sbrs	r18, 6
    37ae:	03 c0       	rjmp	.+6      	; 0x37b6 <vfprintf+0x15a>
    37b0:	65 2d       	mov	r22, r5
    37b2:	70 e0       	ldi	r23, 0x00	; 0
    37b4:	02 c0       	rjmp	.+4      	; 0x37ba <vfprintf+0x15e>
    37b6:	6f ef       	ldi	r22, 0xFF	; 255
    37b8:	7f ef       	ldi	r23, 0xFF	; 255
    37ba:	c5 01       	movw	r24, r10
    37bc:	2c 87       	std	Y+12, r18	; 0x0c
    37be:	0e 94 43 1e 	call	0x3c86	; 0x3c86 <strnlen_P>
    37c2:	2c 01       	movw	r4, r24
    37c4:	2c 85       	ldd	r18, Y+12	; 0x0c
    37c6:	20 68       	ori	r18, 0x80	; 128
    37c8:	22 2e       	mov	r2, r18
    37ca:	83 01       	movw	r16, r6
    37cc:	23 fc       	sbrc	r2, 3
    37ce:	1b c0       	rjmp	.+54     	; 0x3806 <vfprintf+0x1aa>
    37d0:	83 2d       	mov	r24, r3
    37d2:	90 e0       	ldi	r25, 0x00	; 0
    37d4:	48 16       	cp	r4, r24
    37d6:	59 06       	cpc	r5, r25
    37d8:	b0 f4       	brcc	.+44     	; 0x3806 <vfprintf+0x1aa>
    37da:	b7 01       	movw	r22, r14
    37dc:	80 e2       	ldi	r24, 0x20	; 32
    37de:	90 e0       	ldi	r25, 0x00	; 0
    37e0:	0e 94 60 1e 	call	0x3cc0	; 0x3cc0 <fputc>
    37e4:	3a 94       	dec	r3
    37e6:	f4 cf       	rjmp	.-24     	; 0x37d0 <vfprintf+0x174>
    37e8:	f5 01       	movw	r30, r10
    37ea:	27 fc       	sbrc	r2, 7
    37ec:	85 91       	lpm	r24, Z+
    37ee:	27 fe       	sbrs	r2, 7
    37f0:	81 91       	ld	r24, Z+
    37f2:	5f 01       	movw	r10, r30
    37f4:	b7 01       	movw	r22, r14
    37f6:	90 e0       	ldi	r25, 0x00	; 0
    37f8:	0e 94 60 1e 	call	0x3cc0	; 0x3cc0 <fputc>
    37fc:	31 10       	cpse	r3, r1
    37fe:	3a 94       	dec	r3
    3800:	f1 e0       	ldi	r31, 0x01	; 1
    3802:	4f 1a       	sub	r4, r31
    3804:	51 08       	sbc	r5, r1
    3806:	41 14       	cp	r4, r1
    3808:	51 04       	cpc	r5, r1
    380a:	71 f7       	brne	.-36     	; 0x37e8 <vfprintf+0x18c>
    380c:	e5 c0       	rjmp	.+458    	; 0x39d8 <vfprintf+0x37c>
    380e:	84 36       	cpi	r24, 0x64	; 100
    3810:	11 f0       	breq	.+4      	; 0x3816 <vfprintf+0x1ba>
    3812:	89 36       	cpi	r24, 0x69	; 105
    3814:	39 f5       	brne	.+78     	; 0x3864 <vfprintf+0x208>
    3816:	f8 01       	movw	r30, r16
    3818:	27 ff       	sbrs	r18, 7
    381a:	07 c0       	rjmp	.+14     	; 0x382a <vfprintf+0x1ce>
    381c:	60 81       	ld	r22, Z
    381e:	71 81       	ldd	r23, Z+1	; 0x01
    3820:	82 81       	ldd	r24, Z+2	; 0x02
    3822:	93 81       	ldd	r25, Z+3	; 0x03
    3824:	0c 5f       	subi	r16, 0xFC	; 252
    3826:	1f 4f       	sbci	r17, 0xFF	; 255
    3828:	08 c0       	rjmp	.+16     	; 0x383a <vfprintf+0x1de>
    382a:	60 81       	ld	r22, Z
    382c:	71 81       	ldd	r23, Z+1	; 0x01
    382e:	88 27       	eor	r24, r24
    3830:	77 fd       	sbrc	r23, 7
    3832:	80 95       	com	r24
    3834:	98 2f       	mov	r25, r24
    3836:	0e 5f       	subi	r16, 0xFE	; 254
    3838:	1f 4f       	sbci	r17, 0xFF	; 255
    383a:	2f 76       	andi	r18, 0x6F	; 111
    383c:	b2 2e       	mov	r11, r18
    383e:	97 ff       	sbrs	r25, 7
    3840:	09 c0       	rjmp	.+18     	; 0x3854 <vfprintf+0x1f8>
    3842:	90 95       	com	r25
    3844:	80 95       	com	r24
    3846:	70 95       	com	r23
    3848:	61 95       	neg	r22
    384a:	7f 4f       	sbci	r23, 0xFF	; 255
    384c:	8f 4f       	sbci	r24, 0xFF	; 255
    384e:	9f 4f       	sbci	r25, 0xFF	; 255
    3850:	20 68       	ori	r18, 0x80	; 128
    3852:	b2 2e       	mov	r11, r18
    3854:	2a e0       	ldi	r18, 0x0A	; 10
    3856:	30 e0       	ldi	r19, 0x00	; 0
    3858:	a4 01       	movw	r20, r8
    385a:	0e 94 92 1e 	call	0x3d24	; 0x3d24 <__ultoa_invert>
    385e:	a8 2e       	mov	r10, r24
    3860:	a8 18       	sub	r10, r8
    3862:	44 c0       	rjmp	.+136    	; 0x38ec <vfprintf+0x290>
    3864:	85 37       	cpi	r24, 0x75	; 117
    3866:	29 f4       	brne	.+10     	; 0x3872 <vfprintf+0x216>
    3868:	2f 7e       	andi	r18, 0xEF	; 239
    386a:	b2 2e       	mov	r11, r18
    386c:	2a e0       	ldi	r18, 0x0A	; 10
    386e:	30 e0       	ldi	r19, 0x00	; 0
    3870:	25 c0       	rjmp	.+74     	; 0x38bc <vfprintf+0x260>
    3872:	f2 2f       	mov	r31, r18
    3874:	f9 7f       	andi	r31, 0xF9	; 249
    3876:	bf 2e       	mov	r11, r31
    3878:	8f 36       	cpi	r24, 0x6F	; 111
    387a:	c1 f0       	breq	.+48     	; 0x38ac <vfprintf+0x250>
    387c:	18 f4       	brcc	.+6      	; 0x3884 <vfprintf+0x228>
    387e:	88 35       	cpi	r24, 0x58	; 88
    3880:	79 f0       	breq	.+30     	; 0x38a0 <vfprintf+0x244>
    3882:	b4 c0       	rjmp	.+360    	; 0x39ec <vfprintf+0x390>
    3884:	80 37       	cpi	r24, 0x70	; 112
    3886:	19 f0       	breq	.+6      	; 0x388e <vfprintf+0x232>
    3888:	88 37       	cpi	r24, 0x78	; 120
    388a:	21 f0       	breq	.+8      	; 0x3894 <vfprintf+0x238>
    388c:	af c0       	rjmp	.+350    	; 0x39ec <vfprintf+0x390>
    388e:	2f 2f       	mov	r18, r31
    3890:	20 61       	ori	r18, 0x10	; 16
    3892:	b2 2e       	mov	r11, r18
    3894:	b4 fe       	sbrs	r11, 4
    3896:	0d c0       	rjmp	.+26     	; 0x38b2 <vfprintf+0x256>
    3898:	8b 2d       	mov	r24, r11
    389a:	84 60       	ori	r24, 0x04	; 4
    389c:	b8 2e       	mov	r11, r24
    389e:	09 c0       	rjmp	.+18     	; 0x38b2 <vfprintf+0x256>
    38a0:	24 ff       	sbrs	r18, 4
    38a2:	0a c0       	rjmp	.+20     	; 0x38b8 <vfprintf+0x25c>
    38a4:	9f 2f       	mov	r25, r31
    38a6:	96 60       	ori	r25, 0x06	; 6
    38a8:	b9 2e       	mov	r11, r25
    38aa:	06 c0       	rjmp	.+12     	; 0x38b8 <vfprintf+0x25c>
    38ac:	28 e0       	ldi	r18, 0x08	; 8
    38ae:	30 e0       	ldi	r19, 0x00	; 0
    38b0:	05 c0       	rjmp	.+10     	; 0x38bc <vfprintf+0x260>
    38b2:	20 e1       	ldi	r18, 0x10	; 16
    38b4:	30 e0       	ldi	r19, 0x00	; 0
    38b6:	02 c0       	rjmp	.+4      	; 0x38bc <vfprintf+0x260>
    38b8:	20 e1       	ldi	r18, 0x10	; 16
    38ba:	32 e0       	ldi	r19, 0x02	; 2
    38bc:	f8 01       	movw	r30, r16
    38be:	b7 fe       	sbrs	r11, 7
    38c0:	07 c0       	rjmp	.+14     	; 0x38d0 <vfprintf+0x274>
    38c2:	60 81       	ld	r22, Z
    38c4:	71 81       	ldd	r23, Z+1	; 0x01
    38c6:	82 81       	ldd	r24, Z+2	; 0x02
    38c8:	93 81       	ldd	r25, Z+3	; 0x03
    38ca:	0c 5f       	subi	r16, 0xFC	; 252
    38cc:	1f 4f       	sbci	r17, 0xFF	; 255
    38ce:	06 c0       	rjmp	.+12     	; 0x38dc <vfprintf+0x280>
    38d0:	60 81       	ld	r22, Z
    38d2:	71 81       	ldd	r23, Z+1	; 0x01
    38d4:	80 e0       	ldi	r24, 0x00	; 0
    38d6:	90 e0       	ldi	r25, 0x00	; 0
    38d8:	0e 5f       	subi	r16, 0xFE	; 254
    38da:	1f 4f       	sbci	r17, 0xFF	; 255
    38dc:	a4 01       	movw	r20, r8
    38de:	0e 94 92 1e 	call	0x3d24	; 0x3d24 <__ultoa_invert>
    38e2:	a8 2e       	mov	r10, r24
    38e4:	a8 18       	sub	r10, r8
    38e6:	fb 2d       	mov	r31, r11
    38e8:	ff 77       	andi	r31, 0x7F	; 127
    38ea:	bf 2e       	mov	r11, r31
    38ec:	b6 fe       	sbrs	r11, 6
    38ee:	0b c0       	rjmp	.+22     	; 0x3906 <vfprintf+0x2aa>
    38f0:	2b 2d       	mov	r18, r11
    38f2:	2e 7f       	andi	r18, 0xFE	; 254
    38f4:	a5 14       	cp	r10, r5
    38f6:	50 f4       	brcc	.+20     	; 0x390c <vfprintf+0x2b0>
    38f8:	b4 fe       	sbrs	r11, 4
    38fa:	0a c0       	rjmp	.+20     	; 0x3910 <vfprintf+0x2b4>
    38fc:	b2 fc       	sbrc	r11, 2
    38fe:	08 c0       	rjmp	.+16     	; 0x3910 <vfprintf+0x2b4>
    3900:	2b 2d       	mov	r18, r11
    3902:	2e 7e       	andi	r18, 0xEE	; 238
    3904:	05 c0       	rjmp	.+10     	; 0x3910 <vfprintf+0x2b4>
    3906:	7a 2c       	mov	r7, r10
    3908:	2b 2d       	mov	r18, r11
    390a:	03 c0       	rjmp	.+6      	; 0x3912 <vfprintf+0x2b6>
    390c:	7a 2c       	mov	r7, r10
    390e:	01 c0       	rjmp	.+2      	; 0x3912 <vfprintf+0x2b6>
    3910:	75 2c       	mov	r7, r5
    3912:	24 ff       	sbrs	r18, 4
    3914:	0d c0       	rjmp	.+26     	; 0x3930 <vfprintf+0x2d4>
    3916:	fe 01       	movw	r30, r28
    3918:	ea 0d       	add	r30, r10
    391a:	f1 1d       	adc	r31, r1
    391c:	80 81       	ld	r24, Z
    391e:	80 33       	cpi	r24, 0x30	; 48
    3920:	11 f4       	brne	.+4      	; 0x3926 <vfprintf+0x2ca>
    3922:	29 7e       	andi	r18, 0xE9	; 233
    3924:	09 c0       	rjmp	.+18     	; 0x3938 <vfprintf+0x2dc>
    3926:	22 ff       	sbrs	r18, 2
    3928:	06 c0       	rjmp	.+12     	; 0x3936 <vfprintf+0x2da>
    392a:	73 94       	inc	r7
    392c:	73 94       	inc	r7
    392e:	04 c0       	rjmp	.+8      	; 0x3938 <vfprintf+0x2dc>
    3930:	82 2f       	mov	r24, r18
    3932:	86 78       	andi	r24, 0x86	; 134
    3934:	09 f0       	breq	.+2      	; 0x3938 <vfprintf+0x2dc>
    3936:	73 94       	inc	r7
    3938:	23 fd       	sbrc	r18, 3
    393a:	13 c0       	rjmp	.+38     	; 0x3962 <vfprintf+0x306>
    393c:	20 ff       	sbrs	r18, 0
    393e:	06 c0       	rjmp	.+12     	; 0x394c <vfprintf+0x2f0>
    3940:	5a 2c       	mov	r5, r10
    3942:	73 14       	cp	r7, r3
    3944:	18 f4       	brcc	.+6      	; 0x394c <vfprintf+0x2f0>
    3946:	53 0c       	add	r5, r3
    3948:	57 18       	sub	r5, r7
    394a:	73 2c       	mov	r7, r3
    394c:	73 14       	cp	r7, r3
    394e:	68 f4       	brcc	.+26     	; 0x396a <vfprintf+0x30e>
    3950:	b7 01       	movw	r22, r14
    3952:	80 e2       	ldi	r24, 0x20	; 32
    3954:	90 e0       	ldi	r25, 0x00	; 0
    3956:	2c 87       	std	Y+12, r18	; 0x0c
    3958:	0e 94 60 1e 	call	0x3cc0	; 0x3cc0 <fputc>
    395c:	73 94       	inc	r7
    395e:	2c 85       	ldd	r18, Y+12	; 0x0c
    3960:	f5 cf       	rjmp	.-22     	; 0x394c <vfprintf+0x2f0>
    3962:	73 14       	cp	r7, r3
    3964:	10 f4       	brcc	.+4      	; 0x396a <vfprintf+0x30e>
    3966:	37 18       	sub	r3, r7
    3968:	01 c0       	rjmp	.+2      	; 0x396c <vfprintf+0x310>
    396a:	31 2c       	mov	r3, r1
    396c:	24 ff       	sbrs	r18, 4
    396e:	12 c0       	rjmp	.+36     	; 0x3994 <vfprintf+0x338>
    3970:	b7 01       	movw	r22, r14
    3972:	80 e3       	ldi	r24, 0x30	; 48
    3974:	90 e0       	ldi	r25, 0x00	; 0
    3976:	2c 87       	std	Y+12, r18	; 0x0c
    3978:	0e 94 60 1e 	call	0x3cc0	; 0x3cc0 <fputc>
    397c:	2c 85       	ldd	r18, Y+12	; 0x0c
    397e:	22 ff       	sbrs	r18, 2
    3980:	17 c0       	rjmp	.+46     	; 0x39b0 <vfprintf+0x354>
    3982:	21 ff       	sbrs	r18, 1
    3984:	03 c0       	rjmp	.+6      	; 0x398c <vfprintf+0x330>
    3986:	88 e5       	ldi	r24, 0x58	; 88
    3988:	90 e0       	ldi	r25, 0x00	; 0
    398a:	02 c0       	rjmp	.+4      	; 0x3990 <vfprintf+0x334>
    398c:	88 e7       	ldi	r24, 0x78	; 120
    398e:	90 e0       	ldi	r25, 0x00	; 0
    3990:	b7 01       	movw	r22, r14
    3992:	0c c0       	rjmp	.+24     	; 0x39ac <vfprintf+0x350>
    3994:	82 2f       	mov	r24, r18
    3996:	86 78       	andi	r24, 0x86	; 134
    3998:	59 f0       	breq	.+22     	; 0x39b0 <vfprintf+0x354>
    399a:	21 fd       	sbrc	r18, 1
    399c:	02 c0       	rjmp	.+4      	; 0x39a2 <vfprintf+0x346>
    399e:	80 e2       	ldi	r24, 0x20	; 32
    39a0:	01 c0       	rjmp	.+2      	; 0x39a4 <vfprintf+0x348>
    39a2:	8b e2       	ldi	r24, 0x2B	; 43
    39a4:	27 fd       	sbrc	r18, 7
    39a6:	8d e2       	ldi	r24, 0x2D	; 45
    39a8:	b7 01       	movw	r22, r14
    39aa:	90 e0       	ldi	r25, 0x00	; 0
    39ac:	0e 94 60 1e 	call	0x3cc0	; 0x3cc0 <fputc>
    39b0:	a5 14       	cp	r10, r5
    39b2:	38 f4       	brcc	.+14     	; 0x39c2 <vfprintf+0x366>
    39b4:	b7 01       	movw	r22, r14
    39b6:	80 e3       	ldi	r24, 0x30	; 48
    39b8:	90 e0       	ldi	r25, 0x00	; 0
    39ba:	0e 94 60 1e 	call	0x3cc0	; 0x3cc0 <fputc>
    39be:	5a 94       	dec	r5
    39c0:	f7 cf       	rjmp	.-18     	; 0x39b0 <vfprintf+0x354>
    39c2:	aa 94       	dec	r10
    39c4:	f4 01       	movw	r30, r8
    39c6:	ea 0d       	add	r30, r10
    39c8:	f1 1d       	adc	r31, r1
    39ca:	80 81       	ld	r24, Z
    39cc:	b7 01       	movw	r22, r14
    39ce:	90 e0       	ldi	r25, 0x00	; 0
    39d0:	0e 94 60 1e 	call	0x3cc0	; 0x3cc0 <fputc>
    39d4:	a1 10       	cpse	r10, r1
    39d6:	f5 cf       	rjmp	.-22     	; 0x39c2 <vfprintf+0x366>
    39d8:	33 20       	and	r3, r3
    39da:	09 f4       	brne	.+2      	; 0x39de <vfprintf+0x382>
    39dc:	51 ce       	rjmp	.-862    	; 0x3680 <vfprintf+0x24>
    39de:	b7 01       	movw	r22, r14
    39e0:	80 e2       	ldi	r24, 0x20	; 32
    39e2:	90 e0       	ldi	r25, 0x00	; 0
    39e4:	0e 94 60 1e 	call	0x3cc0	; 0x3cc0 <fputc>
    39e8:	3a 94       	dec	r3
    39ea:	f6 cf       	rjmp	.-20     	; 0x39d8 <vfprintf+0x37c>
    39ec:	f7 01       	movw	r30, r14
    39ee:	86 81       	ldd	r24, Z+6	; 0x06
    39f0:	97 81       	ldd	r25, Z+7	; 0x07
    39f2:	02 c0       	rjmp	.+4      	; 0x39f8 <vfprintf+0x39c>
    39f4:	8f ef       	ldi	r24, 0xFF	; 255
    39f6:	9f ef       	ldi	r25, 0xFF	; 255
    39f8:	2c 96       	adiw	r28, 0x0c	; 12
    39fa:	e2 e1       	ldi	r30, 0x12	; 18
    39fc:	0c 94 0c 1f 	jmp	0x3e18	; 0x3e18 <__epilogue_restores__>

00003a00 <calloc>:
    3a00:	0f 93       	push	r16
    3a02:	1f 93       	push	r17
    3a04:	cf 93       	push	r28
    3a06:	df 93       	push	r29
    3a08:	86 9f       	mul	r24, r22
    3a0a:	80 01       	movw	r16, r0
    3a0c:	87 9f       	mul	r24, r23
    3a0e:	10 0d       	add	r17, r0
    3a10:	96 9f       	mul	r25, r22
    3a12:	10 0d       	add	r17, r0
    3a14:	11 24       	eor	r1, r1
    3a16:	c8 01       	movw	r24, r16
    3a18:	0e 94 1c 1d 	call	0x3a38	; 0x3a38 <malloc>
    3a1c:	ec 01       	movw	r28, r24
    3a1e:	00 97       	sbiw	r24, 0x00	; 0
    3a20:	29 f0       	breq	.+10     	; 0x3a2c <calloc+0x2c>
    3a22:	a8 01       	movw	r20, r16
    3a24:	60 e0       	ldi	r22, 0x00	; 0
    3a26:	70 e0       	ldi	r23, 0x00	; 0
    3a28:	0e 94 4e 1e 	call	0x3c9c	; 0x3c9c <memset>
    3a2c:	ce 01       	movw	r24, r28
    3a2e:	df 91       	pop	r29
    3a30:	cf 91       	pop	r28
    3a32:	1f 91       	pop	r17
    3a34:	0f 91       	pop	r16
    3a36:	08 95       	ret

00003a38 <malloc>:
    3a38:	cf 93       	push	r28
    3a3a:	df 93       	push	r29
    3a3c:	82 30       	cpi	r24, 0x02	; 2
    3a3e:	91 05       	cpc	r25, r1
    3a40:	10 f4       	brcc	.+4      	; 0x3a46 <malloc+0xe>
    3a42:	82 e0       	ldi	r24, 0x02	; 2
    3a44:	90 e0       	ldi	r25, 0x00	; 0
    3a46:	e0 91 c8 02 	lds	r30, 0x02C8
    3a4a:	f0 91 c9 02 	lds	r31, 0x02C9
    3a4e:	20 e0       	ldi	r18, 0x00	; 0
    3a50:	30 e0       	ldi	r19, 0x00	; 0
    3a52:	a0 e0       	ldi	r26, 0x00	; 0
    3a54:	b0 e0       	ldi	r27, 0x00	; 0
    3a56:	30 97       	sbiw	r30, 0x00	; 0
    3a58:	39 f1       	breq	.+78     	; 0x3aa8 <malloc+0x70>
    3a5a:	40 81       	ld	r20, Z
    3a5c:	51 81       	ldd	r21, Z+1	; 0x01
    3a5e:	48 17       	cp	r20, r24
    3a60:	59 07       	cpc	r21, r25
    3a62:	b8 f0       	brcs	.+46     	; 0x3a92 <malloc+0x5a>
    3a64:	48 17       	cp	r20, r24
    3a66:	59 07       	cpc	r21, r25
    3a68:	71 f4       	brne	.+28     	; 0x3a86 <malloc+0x4e>
    3a6a:	82 81       	ldd	r24, Z+2	; 0x02
    3a6c:	93 81       	ldd	r25, Z+3	; 0x03
    3a6e:	10 97       	sbiw	r26, 0x00	; 0
    3a70:	29 f0       	breq	.+10     	; 0x3a7c <malloc+0x44>
    3a72:	13 96       	adiw	r26, 0x03	; 3
    3a74:	9c 93       	st	X, r25
    3a76:	8e 93       	st	-X, r24
    3a78:	12 97       	sbiw	r26, 0x02	; 2
    3a7a:	2c c0       	rjmp	.+88     	; 0x3ad4 <malloc+0x9c>
    3a7c:	90 93 c9 02 	sts	0x02C9, r25
    3a80:	80 93 c8 02 	sts	0x02C8, r24
    3a84:	27 c0       	rjmp	.+78     	; 0x3ad4 <malloc+0x9c>
    3a86:	21 15       	cp	r18, r1
    3a88:	31 05       	cpc	r19, r1
    3a8a:	31 f0       	breq	.+12     	; 0x3a98 <malloc+0x60>
    3a8c:	42 17       	cp	r20, r18
    3a8e:	53 07       	cpc	r21, r19
    3a90:	18 f0       	brcs	.+6      	; 0x3a98 <malloc+0x60>
    3a92:	a9 01       	movw	r20, r18
    3a94:	db 01       	movw	r26, r22
    3a96:	01 c0       	rjmp	.+2      	; 0x3a9a <malloc+0x62>
    3a98:	ef 01       	movw	r28, r30
    3a9a:	9a 01       	movw	r18, r20
    3a9c:	bd 01       	movw	r22, r26
    3a9e:	df 01       	movw	r26, r30
    3aa0:	02 80       	ldd	r0, Z+2	; 0x02
    3aa2:	f3 81       	ldd	r31, Z+3	; 0x03
    3aa4:	e0 2d       	mov	r30, r0
    3aa6:	d7 cf       	rjmp	.-82     	; 0x3a56 <malloc+0x1e>
    3aa8:	21 15       	cp	r18, r1
    3aaa:	31 05       	cpc	r19, r1
    3aac:	f9 f0       	breq	.+62     	; 0x3aec <malloc+0xb4>
    3aae:	28 1b       	sub	r18, r24
    3ab0:	39 0b       	sbc	r19, r25
    3ab2:	24 30       	cpi	r18, 0x04	; 4
    3ab4:	31 05       	cpc	r19, r1
    3ab6:	80 f4       	brcc	.+32     	; 0x3ad8 <malloc+0xa0>
    3ab8:	8a 81       	ldd	r24, Y+2	; 0x02
    3aba:	9b 81       	ldd	r25, Y+3	; 0x03
    3abc:	61 15       	cp	r22, r1
    3abe:	71 05       	cpc	r23, r1
    3ac0:	21 f0       	breq	.+8      	; 0x3aca <malloc+0x92>
    3ac2:	fb 01       	movw	r30, r22
    3ac4:	93 83       	std	Z+3, r25	; 0x03
    3ac6:	82 83       	std	Z+2, r24	; 0x02
    3ac8:	04 c0       	rjmp	.+8      	; 0x3ad2 <malloc+0x9a>
    3aca:	90 93 c9 02 	sts	0x02C9, r25
    3ace:	80 93 c8 02 	sts	0x02C8, r24
    3ad2:	fe 01       	movw	r30, r28
    3ad4:	32 96       	adiw	r30, 0x02	; 2
    3ad6:	44 c0       	rjmp	.+136    	; 0x3b60 <malloc+0x128>
    3ad8:	fe 01       	movw	r30, r28
    3ada:	e2 0f       	add	r30, r18
    3adc:	f3 1f       	adc	r31, r19
    3ade:	81 93       	st	Z+, r24
    3ae0:	91 93       	st	Z+, r25
    3ae2:	22 50       	subi	r18, 0x02	; 2
    3ae4:	31 09       	sbc	r19, r1
    3ae6:	39 83       	std	Y+1, r19	; 0x01
    3ae8:	28 83       	st	Y, r18
    3aea:	3a c0       	rjmp	.+116    	; 0x3b60 <malloc+0x128>
    3aec:	20 91 c6 02 	lds	r18, 0x02C6
    3af0:	30 91 c7 02 	lds	r19, 0x02C7
    3af4:	23 2b       	or	r18, r19
    3af6:	41 f4       	brne	.+16     	; 0x3b08 <malloc+0xd0>
    3af8:	20 91 02 01 	lds	r18, 0x0102
    3afc:	30 91 03 01 	lds	r19, 0x0103
    3b00:	30 93 c7 02 	sts	0x02C7, r19
    3b04:	20 93 c6 02 	sts	0x02C6, r18
    3b08:	20 91 00 01 	lds	r18, 0x0100
    3b0c:	30 91 01 01 	lds	r19, 0x0101
    3b10:	21 15       	cp	r18, r1
    3b12:	31 05       	cpc	r19, r1
    3b14:	41 f4       	brne	.+16     	; 0x3b26 <malloc+0xee>
    3b16:	2d b7       	in	r18, 0x3d	; 61
    3b18:	3e b7       	in	r19, 0x3e	; 62
    3b1a:	40 91 04 01 	lds	r20, 0x0104
    3b1e:	50 91 05 01 	lds	r21, 0x0105
    3b22:	24 1b       	sub	r18, r20
    3b24:	35 0b       	sbc	r19, r21
    3b26:	e0 91 c6 02 	lds	r30, 0x02C6
    3b2a:	f0 91 c7 02 	lds	r31, 0x02C7
    3b2e:	e2 17       	cp	r30, r18
    3b30:	f3 07       	cpc	r31, r19
    3b32:	a0 f4       	brcc	.+40     	; 0x3b5c <malloc+0x124>
    3b34:	2e 1b       	sub	r18, r30
    3b36:	3f 0b       	sbc	r19, r31
    3b38:	28 17       	cp	r18, r24
    3b3a:	39 07       	cpc	r19, r25
    3b3c:	78 f0       	brcs	.+30     	; 0x3b5c <malloc+0x124>
    3b3e:	ac 01       	movw	r20, r24
    3b40:	4e 5f       	subi	r20, 0xFE	; 254
    3b42:	5f 4f       	sbci	r21, 0xFF	; 255
    3b44:	24 17       	cp	r18, r20
    3b46:	35 07       	cpc	r19, r21
    3b48:	48 f0       	brcs	.+18     	; 0x3b5c <malloc+0x124>
    3b4a:	4e 0f       	add	r20, r30
    3b4c:	5f 1f       	adc	r21, r31
    3b4e:	50 93 c7 02 	sts	0x02C7, r21
    3b52:	40 93 c6 02 	sts	0x02C6, r20
    3b56:	81 93       	st	Z+, r24
    3b58:	91 93       	st	Z+, r25
    3b5a:	02 c0       	rjmp	.+4      	; 0x3b60 <malloc+0x128>
    3b5c:	e0 e0       	ldi	r30, 0x00	; 0
    3b5e:	f0 e0       	ldi	r31, 0x00	; 0
    3b60:	cf 01       	movw	r24, r30
    3b62:	df 91       	pop	r29
    3b64:	cf 91       	pop	r28
    3b66:	08 95       	ret

00003b68 <free>:
    3b68:	cf 93       	push	r28
    3b6a:	df 93       	push	r29
    3b6c:	00 97       	sbiw	r24, 0x00	; 0
    3b6e:	09 f4       	brne	.+2      	; 0x3b72 <free+0xa>
    3b70:	87 c0       	rjmp	.+270    	; 0x3c80 <free+0x118>
    3b72:	fc 01       	movw	r30, r24
    3b74:	32 97       	sbiw	r30, 0x02	; 2
    3b76:	13 82       	std	Z+3, r1	; 0x03
    3b78:	12 82       	std	Z+2, r1	; 0x02
    3b7a:	c0 91 c8 02 	lds	r28, 0x02C8
    3b7e:	d0 91 c9 02 	lds	r29, 0x02C9
    3b82:	20 97       	sbiw	r28, 0x00	; 0
    3b84:	81 f4       	brne	.+32     	; 0x3ba6 <free+0x3e>
    3b86:	20 81       	ld	r18, Z
    3b88:	31 81       	ldd	r19, Z+1	; 0x01
    3b8a:	28 0f       	add	r18, r24
    3b8c:	39 1f       	adc	r19, r25
    3b8e:	80 91 c6 02 	lds	r24, 0x02C6
    3b92:	90 91 c7 02 	lds	r25, 0x02C7
    3b96:	82 17       	cp	r24, r18
    3b98:	93 07       	cpc	r25, r19
    3b9a:	79 f5       	brne	.+94     	; 0x3bfa <free+0x92>
    3b9c:	f0 93 c7 02 	sts	0x02C7, r31
    3ba0:	e0 93 c6 02 	sts	0x02C6, r30
    3ba4:	6d c0       	rjmp	.+218    	; 0x3c80 <free+0x118>
    3ba6:	de 01       	movw	r26, r28
    3ba8:	20 e0       	ldi	r18, 0x00	; 0
    3baa:	30 e0       	ldi	r19, 0x00	; 0
    3bac:	ae 17       	cp	r26, r30
    3bae:	bf 07       	cpc	r27, r31
    3bb0:	50 f4       	brcc	.+20     	; 0x3bc6 <free+0x5e>
    3bb2:	12 96       	adiw	r26, 0x02	; 2
    3bb4:	4d 91       	ld	r20, X+
    3bb6:	5c 91       	ld	r21, X
    3bb8:	13 97       	sbiw	r26, 0x03	; 3
    3bba:	9d 01       	movw	r18, r26
    3bbc:	41 15       	cp	r20, r1
    3bbe:	51 05       	cpc	r21, r1
    3bc0:	09 f1       	breq	.+66     	; 0x3c04 <free+0x9c>
    3bc2:	da 01       	movw	r26, r20
    3bc4:	f3 cf       	rjmp	.-26     	; 0x3bac <free+0x44>
    3bc6:	b3 83       	std	Z+3, r27	; 0x03
    3bc8:	a2 83       	std	Z+2, r26	; 0x02
    3bca:	40 81       	ld	r20, Z
    3bcc:	51 81       	ldd	r21, Z+1	; 0x01
    3bce:	84 0f       	add	r24, r20
    3bd0:	95 1f       	adc	r25, r21
    3bd2:	8a 17       	cp	r24, r26
    3bd4:	9b 07       	cpc	r25, r27
    3bd6:	71 f4       	brne	.+28     	; 0x3bf4 <free+0x8c>
    3bd8:	8d 91       	ld	r24, X+
    3bda:	9c 91       	ld	r25, X
    3bdc:	11 97       	sbiw	r26, 0x01	; 1
    3bde:	84 0f       	add	r24, r20
    3be0:	95 1f       	adc	r25, r21
    3be2:	02 96       	adiw	r24, 0x02	; 2
    3be4:	91 83       	std	Z+1, r25	; 0x01
    3be6:	80 83       	st	Z, r24
    3be8:	12 96       	adiw	r26, 0x02	; 2
    3bea:	8d 91       	ld	r24, X+
    3bec:	9c 91       	ld	r25, X
    3bee:	13 97       	sbiw	r26, 0x03	; 3
    3bf0:	93 83       	std	Z+3, r25	; 0x03
    3bf2:	82 83       	std	Z+2, r24	; 0x02
    3bf4:	21 15       	cp	r18, r1
    3bf6:	31 05       	cpc	r19, r1
    3bf8:	29 f4       	brne	.+10     	; 0x3c04 <free+0x9c>
    3bfa:	f0 93 c9 02 	sts	0x02C9, r31
    3bfe:	e0 93 c8 02 	sts	0x02C8, r30
    3c02:	3e c0       	rjmp	.+124    	; 0x3c80 <free+0x118>
    3c04:	d9 01       	movw	r26, r18
    3c06:	13 96       	adiw	r26, 0x03	; 3
    3c08:	fc 93       	st	X, r31
    3c0a:	ee 93       	st	-X, r30
    3c0c:	12 97       	sbiw	r26, 0x02	; 2
    3c0e:	4d 91       	ld	r20, X+
    3c10:	5d 91       	ld	r21, X+
    3c12:	a4 0f       	add	r26, r20
    3c14:	b5 1f       	adc	r27, r21
    3c16:	ea 17       	cp	r30, r26
    3c18:	fb 07       	cpc	r31, r27
    3c1a:	79 f4       	brne	.+30     	; 0x3c3a <free+0xd2>
    3c1c:	80 81       	ld	r24, Z
    3c1e:	91 81       	ldd	r25, Z+1	; 0x01
    3c20:	84 0f       	add	r24, r20
    3c22:	95 1f       	adc	r25, r21
    3c24:	02 96       	adiw	r24, 0x02	; 2
    3c26:	d9 01       	movw	r26, r18
    3c28:	11 96       	adiw	r26, 0x01	; 1
    3c2a:	9c 93       	st	X, r25
    3c2c:	8e 93       	st	-X, r24
    3c2e:	82 81       	ldd	r24, Z+2	; 0x02
    3c30:	93 81       	ldd	r25, Z+3	; 0x03
    3c32:	13 96       	adiw	r26, 0x03	; 3
    3c34:	9c 93       	st	X, r25
    3c36:	8e 93       	st	-X, r24
    3c38:	12 97       	sbiw	r26, 0x02	; 2
    3c3a:	e0 e0       	ldi	r30, 0x00	; 0
    3c3c:	f0 e0       	ldi	r31, 0x00	; 0
    3c3e:	8a 81       	ldd	r24, Y+2	; 0x02
    3c40:	9b 81       	ldd	r25, Y+3	; 0x03
    3c42:	00 97       	sbiw	r24, 0x00	; 0
    3c44:	19 f0       	breq	.+6      	; 0x3c4c <free+0xe4>
    3c46:	fe 01       	movw	r30, r28
    3c48:	ec 01       	movw	r28, r24
    3c4a:	f9 cf       	rjmp	.-14     	; 0x3c3e <free+0xd6>
    3c4c:	ce 01       	movw	r24, r28
    3c4e:	02 96       	adiw	r24, 0x02	; 2
    3c50:	28 81       	ld	r18, Y
    3c52:	39 81       	ldd	r19, Y+1	; 0x01
    3c54:	82 0f       	add	r24, r18
    3c56:	93 1f       	adc	r25, r19
    3c58:	20 91 c6 02 	lds	r18, 0x02C6
    3c5c:	30 91 c7 02 	lds	r19, 0x02C7
    3c60:	28 17       	cp	r18, r24
    3c62:	39 07       	cpc	r19, r25
    3c64:	69 f4       	brne	.+26     	; 0x3c80 <free+0x118>
    3c66:	30 97       	sbiw	r30, 0x00	; 0
    3c68:	29 f4       	brne	.+10     	; 0x3c74 <free+0x10c>
    3c6a:	10 92 c9 02 	sts	0x02C9, r1
    3c6e:	10 92 c8 02 	sts	0x02C8, r1
    3c72:	02 c0       	rjmp	.+4      	; 0x3c78 <free+0x110>
    3c74:	13 82       	std	Z+3, r1	; 0x03
    3c76:	12 82       	std	Z+2, r1	; 0x02
    3c78:	d0 93 c7 02 	sts	0x02C7, r29
    3c7c:	c0 93 c6 02 	sts	0x02C6, r28
    3c80:	df 91       	pop	r29
    3c82:	cf 91       	pop	r28
    3c84:	08 95       	ret

00003c86 <strnlen_P>:
    3c86:	fc 01       	movw	r30, r24
    3c88:	05 90       	lpm	r0, Z+
    3c8a:	61 50       	subi	r22, 0x01	; 1
    3c8c:	70 40       	sbci	r23, 0x00	; 0
    3c8e:	01 10       	cpse	r0, r1
    3c90:	d8 f7       	brcc	.-10     	; 0x3c88 <strnlen_P+0x2>
    3c92:	80 95       	com	r24
    3c94:	90 95       	com	r25
    3c96:	8e 0f       	add	r24, r30
    3c98:	9f 1f       	adc	r25, r31
    3c9a:	08 95       	ret

00003c9c <memset>:
    3c9c:	dc 01       	movw	r26, r24
    3c9e:	01 c0       	rjmp	.+2      	; 0x3ca2 <memset+0x6>
    3ca0:	6d 93       	st	X+, r22
    3ca2:	41 50       	subi	r20, 0x01	; 1
    3ca4:	50 40       	sbci	r21, 0x00	; 0
    3ca6:	e0 f7       	brcc	.-8      	; 0x3ca0 <memset+0x4>
    3ca8:	08 95       	ret

00003caa <strnlen>:
    3caa:	fc 01       	movw	r30, r24
    3cac:	61 50       	subi	r22, 0x01	; 1
    3cae:	70 40       	sbci	r23, 0x00	; 0
    3cb0:	01 90       	ld	r0, Z+
    3cb2:	01 10       	cpse	r0, r1
    3cb4:	d8 f7       	brcc	.-10     	; 0x3cac <strnlen+0x2>
    3cb6:	80 95       	com	r24
    3cb8:	90 95       	com	r25
    3cba:	8e 0f       	add	r24, r30
    3cbc:	9f 1f       	adc	r25, r31
    3cbe:	08 95       	ret

00003cc0 <fputc>:
    3cc0:	0f 93       	push	r16
    3cc2:	1f 93       	push	r17
    3cc4:	cf 93       	push	r28
    3cc6:	df 93       	push	r29
    3cc8:	18 2f       	mov	r17, r24
    3cca:	09 2f       	mov	r16, r25
    3ccc:	eb 01       	movw	r28, r22
    3cce:	8b 81       	ldd	r24, Y+3	; 0x03
    3cd0:	81 fd       	sbrc	r24, 1
    3cd2:	03 c0       	rjmp	.+6      	; 0x3cda <fputc+0x1a>
    3cd4:	8f ef       	ldi	r24, 0xFF	; 255
    3cd6:	9f ef       	ldi	r25, 0xFF	; 255
    3cd8:	20 c0       	rjmp	.+64     	; 0x3d1a <fputc+0x5a>
    3cda:	82 ff       	sbrs	r24, 2
    3cdc:	10 c0       	rjmp	.+32     	; 0x3cfe <fputc+0x3e>
    3cde:	4e 81       	ldd	r20, Y+6	; 0x06
    3ce0:	5f 81       	ldd	r21, Y+7	; 0x07
    3ce2:	2c 81       	ldd	r18, Y+4	; 0x04
    3ce4:	3d 81       	ldd	r19, Y+5	; 0x05
    3ce6:	42 17       	cp	r20, r18
    3ce8:	53 07       	cpc	r21, r19
    3cea:	7c f4       	brge	.+30     	; 0x3d0a <fputc+0x4a>
    3cec:	e8 81       	ld	r30, Y
    3cee:	f9 81       	ldd	r31, Y+1	; 0x01
    3cf0:	9f 01       	movw	r18, r30
    3cf2:	2f 5f       	subi	r18, 0xFF	; 255
    3cf4:	3f 4f       	sbci	r19, 0xFF	; 255
    3cf6:	39 83       	std	Y+1, r19	; 0x01
    3cf8:	28 83       	st	Y, r18
    3cfa:	10 83       	st	Z, r17
    3cfc:	06 c0       	rjmp	.+12     	; 0x3d0a <fputc+0x4a>
    3cfe:	e8 85       	ldd	r30, Y+8	; 0x08
    3d00:	f9 85       	ldd	r31, Y+9	; 0x09
    3d02:	81 2f       	mov	r24, r17
    3d04:	09 95       	icall
    3d06:	89 2b       	or	r24, r25
    3d08:	29 f7       	brne	.-54     	; 0x3cd4 <fputc+0x14>
    3d0a:	2e 81       	ldd	r18, Y+6	; 0x06
    3d0c:	3f 81       	ldd	r19, Y+7	; 0x07
    3d0e:	2f 5f       	subi	r18, 0xFF	; 255
    3d10:	3f 4f       	sbci	r19, 0xFF	; 255
    3d12:	3f 83       	std	Y+7, r19	; 0x07
    3d14:	2e 83       	std	Y+6, r18	; 0x06
    3d16:	81 2f       	mov	r24, r17
    3d18:	90 2f       	mov	r25, r16
    3d1a:	df 91       	pop	r29
    3d1c:	cf 91       	pop	r28
    3d1e:	1f 91       	pop	r17
    3d20:	0f 91       	pop	r16
    3d22:	08 95       	ret

00003d24 <__ultoa_invert>:
    3d24:	fa 01       	movw	r30, r20
    3d26:	aa 27       	eor	r26, r26
    3d28:	28 30       	cpi	r18, 0x08	; 8
    3d2a:	51 f1       	breq	.+84     	; 0x3d80 <__ultoa_invert+0x5c>
    3d2c:	20 31       	cpi	r18, 0x10	; 16
    3d2e:	81 f1       	breq	.+96     	; 0x3d90 <__ultoa_invert+0x6c>
    3d30:	e8 94       	clt
    3d32:	6f 93       	push	r22
    3d34:	6e 7f       	andi	r22, 0xFE	; 254
    3d36:	6e 5f       	subi	r22, 0xFE	; 254
    3d38:	7f 4f       	sbci	r23, 0xFF	; 255
    3d3a:	8f 4f       	sbci	r24, 0xFF	; 255
    3d3c:	9f 4f       	sbci	r25, 0xFF	; 255
    3d3e:	af 4f       	sbci	r26, 0xFF	; 255
    3d40:	b1 e0       	ldi	r27, 0x01	; 1
    3d42:	3e d0       	rcall	.+124    	; 0x3dc0 <__ultoa_invert+0x9c>
    3d44:	b4 e0       	ldi	r27, 0x04	; 4
    3d46:	3c d0       	rcall	.+120    	; 0x3dc0 <__ultoa_invert+0x9c>
    3d48:	67 0f       	add	r22, r23
    3d4a:	78 1f       	adc	r23, r24
    3d4c:	89 1f       	adc	r24, r25
    3d4e:	9a 1f       	adc	r25, r26
    3d50:	a1 1d       	adc	r26, r1
    3d52:	68 0f       	add	r22, r24
    3d54:	79 1f       	adc	r23, r25
    3d56:	8a 1f       	adc	r24, r26
    3d58:	91 1d       	adc	r25, r1
    3d5a:	a1 1d       	adc	r26, r1
    3d5c:	6a 0f       	add	r22, r26
    3d5e:	71 1d       	adc	r23, r1
    3d60:	81 1d       	adc	r24, r1
    3d62:	91 1d       	adc	r25, r1
    3d64:	a1 1d       	adc	r26, r1
    3d66:	20 d0       	rcall	.+64     	; 0x3da8 <__ultoa_invert+0x84>
    3d68:	09 f4       	brne	.+2      	; 0x3d6c <__ultoa_invert+0x48>
    3d6a:	68 94       	set
    3d6c:	3f 91       	pop	r19
    3d6e:	2a e0       	ldi	r18, 0x0A	; 10
    3d70:	26 9f       	mul	r18, r22
    3d72:	11 24       	eor	r1, r1
    3d74:	30 19       	sub	r19, r0
    3d76:	30 5d       	subi	r19, 0xD0	; 208
    3d78:	31 93       	st	Z+, r19
    3d7a:	de f6       	brtc	.-74     	; 0x3d32 <__ultoa_invert+0xe>
    3d7c:	cf 01       	movw	r24, r30
    3d7e:	08 95       	ret
    3d80:	46 2f       	mov	r20, r22
    3d82:	47 70       	andi	r20, 0x07	; 7
    3d84:	40 5d       	subi	r20, 0xD0	; 208
    3d86:	41 93       	st	Z+, r20
    3d88:	b3 e0       	ldi	r27, 0x03	; 3
    3d8a:	0f d0       	rcall	.+30     	; 0x3daa <__ultoa_invert+0x86>
    3d8c:	c9 f7       	brne	.-14     	; 0x3d80 <__ultoa_invert+0x5c>
    3d8e:	f6 cf       	rjmp	.-20     	; 0x3d7c <__ultoa_invert+0x58>
    3d90:	46 2f       	mov	r20, r22
    3d92:	4f 70       	andi	r20, 0x0F	; 15
    3d94:	40 5d       	subi	r20, 0xD0	; 208
    3d96:	4a 33       	cpi	r20, 0x3A	; 58
    3d98:	18 f0       	brcs	.+6      	; 0x3da0 <__ultoa_invert+0x7c>
    3d9a:	49 5d       	subi	r20, 0xD9	; 217
    3d9c:	31 fd       	sbrc	r19, 1
    3d9e:	40 52       	subi	r20, 0x20	; 32
    3da0:	41 93       	st	Z+, r20
    3da2:	02 d0       	rcall	.+4      	; 0x3da8 <__ultoa_invert+0x84>
    3da4:	a9 f7       	brne	.-22     	; 0x3d90 <__ultoa_invert+0x6c>
    3da6:	ea cf       	rjmp	.-44     	; 0x3d7c <__ultoa_invert+0x58>
    3da8:	b4 e0       	ldi	r27, 0x04	; 4
    3daa:	a6 95       	lsr	r26
    3dac:	97 95       	ror	r25
    3dae:	87 95       	ror	r24
    3db0:	77 95       	ror	r23
    3db2:	67 95       	ror	r22
    3db4:	ba 95       	dec	r27
    3db6:	c9 f7       	brne	.-14     	; 0x3daa <__ultoa_invert+0x86>
    3db8:	00 97       	sbiw	r24, 0x00	; 0
    3dba:	61 05       	cpc	r22, r1
    3dbc:	71 05       	cpc	r23, r1
    3dbe:	08 95       	ret
    3dc0:	9b 01       	movw	r18, r22
    3dc2:	ac 01       	movw	r20, r24
    3dc4:	0a 2e       	mov	r0, r26
    3dc6:	06 94       	lsr	r0
    3dc8:	57 95       	ror	r21
    3dca:	47 95       	ror	r20
    3dcc:	37 95       	ror	r19
    3dce:	27 95       	ror	r18
    3dd0:	ba 95       	dec	r27
    3dd2:	c9 f7       	brne	.-14     	; 0x3dc6 <__ultoa_invert+0xa2>
    3dd4:	62 0f       	add	r22, r18
    3dd6:	73 1f       	adc	r23, r19
    3dd8:	84 1f       	adc	r24, r20
    3dda:	95 1f       	adc	r25, r21
    3ddc:	a0 1d       	adc	r26, r0
    3dde:	08 95       	ret

00003de0 <__prologue_saves__>:
    3de0:	2f 92       	push	r2
    3de2:	3f 92       	push	r3
    3de4:	4f 92       	push	r4
    3de6:	5f 92       	push	r5
    3de8:	6f 92       	push	r6
    3dea:	7f 92       	push	r7
    3dec:	8f 92       	push	r8
    3dee:	9f 92       	push	r9
    3df0:	af 92       	push	r10
    3df2:	bf 92       	push	r11
    3df4:	cf 92       	push	r12
    3df6:	df 92       	push	r13
    3df8:	ef 92       	push	r14
    3dfa:	ff 92       	push	r15
    3dfc:	0f 93       	push	r16
    3dfe:	1f 93       	push	r17
    3e00:	cf 93       	push	r28
    3e02:	df 93       	push	r29
    3e04:	cd b7       	in	r28, 0x3d	; 61
    3e06:	de b7       	in	r29, 0x3e	; 62
    3e08:	ca 1b       	sub	r28, r26
    3e0a:	db 0b       	sbc	r29, r27
    3e0c:	0f b6       	in	r0, 0x3f	; 63
    3e0e:	f8 94       	cli
    3e10:	de bf       	out	0x3e, r29	; 62
    3e12:	0f be       	out	0x3f, r0	; 63
    3e14:	cd bf       	out	0x3d, r28	; 61
    3e16:	09 94       	ijmp

00003e18 <__epilogue_restores__>:
    3e18:	2a 88       	ldd	r2, Y+18	; 0x12
    3e1a:	39 88       	ldd	r3, Y+17	; 0x11
    3e1c:	48 88       	ldd	r4, Y+16	; 0x10
    3e1e:	5f 84       	ldd	r5, Y+15	; 0x0f
    3e20:	6e 84       	ldd	r6, Y+14	; 0x0e
    3e22:	7d 84       	ldd	r7, Y+13	; 0x0d
    3e24:	8c 84       	ldd	r8, Y+12	; 0x0c
    3e26:	9b 84       	ldd	r9, Y+11	; 0x0b
    3e28:	aa 84       	ldd	r10, Y+10	; 0x0a
    3e2a:	b9 84       	ldd	r11, Y+9	; 0x09
    3e2c:	c8 84       	ldd	r12, Y+8	; 0x08
    3e2e:	df 80       	ldd	r13, Y+7	; 0x07
    3e30:	ee 80       	ldd	r14, Y+6	; 0x06
    3e32:	fd 80       	ldd	r15, Y+5	; 0x05
    3e34:	0c 81       	ldd	r16, Y+4	; 0x04
    3e36:	1b 81       	ldd	r17, Y+3	; 0x03
    3e38:	aa 81       	ldd	r26, Y+2	; 0x02
    3e3a:	b9 81       	ldd	r27, Y+1	; 0x01
    3e3c:	ce 0f       	add	r28, r30
    3e3e:	d1 1d       	adc	r29, r1
    3e40:	0f b6       	in	r0, 0x3f	; 63
    3e42:	f8 94       	cli
    3e44:	de bf       	out	0x3e, r29	; 62
    3e46:	0f be       	out	0x3f, r0	; 63
    3e48:	cd bf       	out	0x3d, r28	; 61
    3e4a:	ed 01       	movw	r28, r26
    3e4c:	08 95       	ret

00003e4e <_exit>:
    3e4e:	f8 94       	cli

00003e50 <__stop_program>:
    3e50:	ff cf       	rjmp	.-2      	; 0x3e50 <__stop_program>
